gplink-1.4.0 #1106 (Oct  6 2014)
Map File - Created 9-22-2016  09:40:20

                                 Section Info
                  Section       Type    Address   Location Size(Bytes)
                ---------  ---------  ---------  ---------  ---------
                   .cinit    romdata   0x000d04    program   0x00000e
                 .idata_i    romdata   0x000d12    program   0x000002
.config_300001_BUILD/DEFAULT/PRODUCTION/AULA6.O    romdata   0x300001    program   0x000001
.config_300003_BUILD/DEFAULT/PRODUCTION/AULA6.O    romdata   0x300003    program   0x000001
.config_300005_BUILD/DEFAULT/PRODUCTION/AULA6.O    romdata   0x300005    program   0x000001
.config_300006_BUILD/DEFAULT/PRODUCTION/AULA6.O    romdata   0x300006    program   0x000001
          S_crt0i___entry       code   0x000000    program   0x000004
         S_fsadd____fsadd       code   0x000004    program   0x0003ae
S_disp7seg__AtualizaDisplay       code   0x0003b2    program   0x0001d8
            S_Aula6__main       code   0x00058a    program   0x0001bc
           S_fslt____fslt       code   0x000746    program   0x00011e
      S_divsint___divsint       code   0x000864    program   0x0000ee
      S_modsint___modsint       code   0x000952    program   0x0000dc
      S_moduint___moduint       code   0x000a2e    program   0x0000ba
      S_divuint___divuint       code   0x000ae8    program   0x0000b0
        S_crt0i___startup       code   0x000b98    program   0x00009e
S_disp7seg__InicializaDisplays       code   0x000c36    program   0x00006e
   S_disp7seg__MudaDigito       code   0x000ca4    program   0x000050
                    .code       code   0x000cf4    program   0x000010
                   .idata      idata   0x000095       data   0x000001
               .registers      udata   0x000000       data   0x000011
             udata_fslt_0      udata   0x000080       data   0x000004
             udata_fslt_1      udata   0x000084       data   0x000004
            udata_fsadd_0      udata   0x000088       data   0x000004
            udata_fsadd_1      udata   0x00008c       data   0x000004
         udata_disp7seg_0      udata   0x000090       data   0x000001
         udata_disp7seg_1      udata   0x000091       data   0x000001
         udata_disp7seg_2      udata   0x000092       data   0x000001
         udata_disp7seg_3      udata   0x000093       data   0x000001
         udata_disp7seg_4      udata   0x000094       data   0x000001
            stack_section      udata   0x000100       data   0x000100
      ustat_pic18f4520_00      udata   0x000f80       data   0x000005
      ustat_pic18f4520_01      udata   0x000f89       data   0x000005
      ustat_pic18f4520_02      udata   0x000f92       data   0x000005
      ustat_pic18f4520_03      udata   0x000f9b       data   0x000001
      ustat_pic18f4520_04      udata   0x000f9d       data   0x000006
      ustat_pic18f4520_05      udata   0x000fa6       data   0x000004
      ustat_pic18f4520_06      udata   0x000fab       data   0x00000e
      ustat_pic18f4520_07      udata   0x000fba       data   0x00001a
      ustat_pic18f4520_08      udata   0x000fd5       data   0x00002b



                              Program Memory Usage
                               Start         End
                           ---------   ---------
                            0x000c36    0x000ca3
                            0x0003b2    0x000589
                            0x000ca4    0x000cf3
                            0x000cf4    0x000d03
                            0x00058a    0x000745
                            0x300005    0x300005
                            0x300001    0x300001
                            0x300003    0x300003
                            0x300006    0x300006
                            0x000d12    0x000d13
                            0x000000    0x000003
                            0x000b98    0x000c35
                            0x000746    0x000863
                            0x000004    0x0003b1
                            0x000864    0x000951
                            0x000952    0x000a2d
                            0x000ae8    0x000b97
                            0x000a2e    0x000ae7
                            0x000d04    0x000d11
                            3352 program addresses used



                              Symbols - Sorted by Name
                     Name    Address   Location    Storage File
                ---------  ---------  ---------  --------- ---------
               _00106_DS_   0x0000ca    program     static fsadd.asm
               _00106_DS_   0x000926    program     static divsint.asm
               _00106_DS_   0x000a06    program     static modsint.asm
               _00106_DS_   0x000806    program     static fslt.asm
               _00106_DS_   0x000a94    program     static moduint.asm
               _00106_DS_   0x000cc8    program     static build/default/production/disp7seg.asm
               _00106_DS_   0x0006c6    program     static build/default/production/Aula6.asm
               _00107_DS_   0x000a6e    program     static moduint.asm
               _00108_DS_   0x000cd2    program     static build/default/production/disp7seg.asm
               _00108_DS_   0x000a0c    program     static modsint.asm
               _00108_DS_   0x00092c    program     static divsint.asm
               _00108_DS_   0x0006d6    program     static build/default/production/Aula6.asm
               _00108_DS_   0x0000e8    program     static fsadd.asm
               _00108_DS_   0x00080a    program     static fslt.asm
               _00109_DS_   0x000b30    program     static divuint.asm
               _00110_DS_   0x000b60    program     static divuint.asm
               _00110_DS_   0x000cdc    program     static build/default/production/disp7seg.asm
               _00110_DS_   0x000132    program     static fsadd.asm
               _00110_DS_   0x0008c0    program     static divsint.asm
               _00110_DS_   0x0009aa    program     static modsint.asm
               _00111_DS_   0x000ab0    program     static moduint.asm
               _00111_DS_   0x0009b2    program     static modsint.asm
               _00111_DS_   0x0008c8    program     static divsint.asm
               _00111_DS_   0x00083c    program     static fslt.asm
               _00112_DS_   0x00083e    program     static fslt.asm
               _00112_DS_   0x000a9c    program     static moduint.asm
               _00112_DS_   0x000160    program     static fsadd.asm
               _00112_DS_   0x0008e4    program     static divsint.asm
               _00112_DS_   0x0006de    program     static build/default/production/Aula6.asm
               _00112_DS_   0x0009c8    program     static modsint.asm
               _00113_DS_   0x0008ec    program     static divsint.asm
               _00113_DS_   0x000ce6    program     static build/default/production/disp7seg.asm
               _00113_DS_   0x000596    program     static build/default/production/Aula6.asm
               _00113_DS_   0x0009d0    program     static modsint.asm
               _00114_DS_   0x0001aa    program     static fsadd.asm
               _00116_DS_   0x0001cc    program     static fsadd.asm
               _00118_DS_   0x000216    program     static fsadd.asm
               _00119_DS_   0x000252    program     static fsadd.asm
               _00123_DS_   0x00028a    program     static fsadd.asm
               _00125_DS_   0x00029e    program     static fsadd.asm
               _00126_DS_   0x000800    program     static fslt.asm
               _00127_DS_   0x000836    program     static fslt.asm
               _00127_DS_   0x000b54    program     static divuint.asm
               _00129_DS_   0x0002fa    program     static fsadd.asm
               _00130_DS_   0x0002d8    program     static fsadd.asm
               _00132_DS_   0x0006bc    program     static build/default/production/Aula6.asm
               _00132_DS_   0x00030a    program     static fsadd.asm
               _00133_DS_   0x0006be    program     static build/default/production/Aula6.asm
               _00133_DS_   0x000368    program     static fsadd.asm
               _00134_DS_   0x0006d0    program     static build/default/production/Aula6.asm
               _00135_DS_   0x0006d2    program     static build/default/production/Aula6.asm
               _00136_DS_   0x000a8a    program     static moduint.asm
               _00137_DS_   0x000aa6    program     static moduint.asm
               _00137_DS_   0x000426    program     static build/default/production/disp7seg.asm
               _00138_DS_   0x00047a    program     static build/default/production/disp7seg.asm
               _00139_DS_   0x0004ce    program     static build/default/production/disp7seg.asm
               _00140_DS_   0x000522    program     static build/default/production/disp7seg.asm
               _00141_DS_   0x000574    program     static build/default/production/disp7seg.asm
               _00143_DS_   0x000578    program     static build/default/production/disp7seg.asm
               _00152_DS_   0x000416    program     static build/default/production/disp7seg.asm
               _00181_DS_   0x00011e    program     static fsadd.asm
               _00182_DS_   0x00014c    program     static fsadd.asm
               _00189_DS_   0x0001de    program     static fsadd.asm
               _00190_DS_   0x000214    program     static fsadd.asm
               _00191_DS_   0x0001f4    program     static fsadd.asm
               _00192_DS_   0x000208    program     static fsadd.asm
               _00193_DS_   0x000206    program     static fsadd.asm
               _00194_DS_   0x00024a    program     static fsadd.asm
               _00195_DS_   0x00022a    program     static fsadd.asm
               _00196_DS_   0x00023e    program     static fsadd.asm
               _00197_DS_   0x00023c    program     static fsadd.asm
               _00198_DS_   0x00027e    program     static fsadd.asm
               _00199_DS_   0x0002c4    program     static fsadd.asm
                  _ADCON0   0x000fc2       data     extern libdev18f4520_a-pic18f4520.asm
              _ADCON0bits   0x000fc2       data     extern libdev18f4520_a-pic18f4520.asm
                  _ADCON1   0x000fc1       data     extern libdev18f4520_a-pic18f4520.asm
              _ADCON1bits   0x000fc1       data     extern libdev18f4520_a-pic18f4520.asm
                  _ADCON2   0x000fc0       data     extern libdev18f4520_a-pic18f4520.asm
              _ADCON2bits   0x000fc0       data     extern libdev18f4520_a-pic18f4520.asm
                   _ADRES   0x000fc3       data     extern libdev18f4520_a-pic18f4520.asm
                  _ADRESH   0x000fc4       data     extern libdev18f4520_a-pic18f4520.asm
                  _ADRESL   0x000fc3       data     extern libdev18f4520_a-pic18f4520.asm
         _AtualizaDisplay   0x0003b2    program     extern build/default/production/disp7seg.asm
                 _BAUDCON   0x000fb8       data     extern libdev18f4520_a-pic18f4520.asm
             _BAUDCONbits   0x000fb8       data     extern libdev18f4520_a-pic18f4520.asm
                 _BAUDCTL   0x000fb8       data     extern libdev18f4520_a-pic18f4520.asm
             _BAUDCTLbits   0x000fb8       data     extern libdev18f4520_a-pic18f4520.asm
                     _BSR   0x000fe0       data     extern libdev18f4520_a-pic18f4520.asm
                 _CCP1CON   0x000fbd       data     extern libdev18f4520_a-pic18f4520.asm
             _CCP1CONbits   0x000fbd       data     extern libdev18f4520_a-pic18f4520.asm
                 _CCP2CON   0x000fba       data     extern libdev18f4520_a-pic18f4520.asm
             _CCP2CONbits   0x000fba       data     extern libdev18f4520_a-pic18f4520.asm
                   _CCPR1   0x000fbe       data     extern libdev18f4520_a-pic18f4520.asm
                  _CCPR1H   0x000fbf       data     extern libdev18f4520_a-pic18f4520.asm
                  _CCPR1L   0x000fbe       data     extern libdev18f4520_a-pic18f4520.asm
                   _CCPR2   0x000fbb       data     extern libdev18f4520_a-pic18f4520.asm
                  _CCPR2H   0x000fbc       data     extern libdev18f4520_a-pic18f4520.asm
                  _CCPR2L   0x000fbb       data     extern libdev18f4520_a-pic18f4520.asm
                   _CMCON   0x000fb4       data     extern libdev18f4520_a-pic18f4520.asm
               _CMCONbits   0x000fb4       data     extern libdev18f4520_a-pic18f4520.asm
                  _CVRCON   0x000fb5       data     extern libdev18f4520_a-pic18f4520.asm
              _CVRCONbits   0x000fb5       data     extern libdev18f4520_a-pic18f4520.asm
                    _DDRA   0x000f92       data     extern libdev18f4520_a-pic18f4520.asm
                _DDRAbits   0x000f92       data     extern libdev18f4520_a-pic18f4520.asm
                    _DDRB   0x000f93       data     extern libdev18f4520_a-pic18f4520.asm
                _DDRBbits   0x000f93       data     extern libdev18f4520_a-pic18f4520.asm
                    _DDRC   0x000f94       data     extern libdev18f4520_a-pic18f4520.asm
                _DDRCbits   0x000f94       data     extern libdev18f4520_a-pic18f4520.asm
                    _DDRD   0x000f95       data     extern libdev18f4520_a-pic18f4520.asm
                _DDRDbits   0x000f95       data     extern libdev18f4520_a-pic18f4520.asm
                    _DDRE   0x000f96       data     extern libdev18f4520_a-pic18f4520.asm
                _DDREbits   0x000f96       data     extern libdev18f4520_a-pic18f4520.asm
                 _ECCP1AS   0x000fb6       data     extern libdev18f4520_a-pic18f4520.asm
             _ECCP1ASbits   0x000fb6       data     extern libdev18f4520_a-pic18f4520.asm
                _ECCP1DEL   0x000fb7       data     extern libdev18f4520_a-pic18f4520.asm
            _ECCP1DELbits   0x000fb7       data     extern libdev18f4520_a-pic18f4520.asm
                  _ECCPAS   0x000fb6       data     extern libdev18f4520_a-pic18f4520.asm
              _ECCPASbits   0x000fb6       data     extern libdev18f4520_a-pic18f4520.asm
                   _EEADR   0x000fa9       data     extern libdev18f4520_a-pic18f4520.asm
                  _EECON1   0x000fa6       data     extern libdev18f4520_a-pic18f4520.asm
              _EECON1bits   0x000fa6       data     extern libdev18f4520_a-pic18f4520.asm
                  _EECON2   0x000fa7       data     extern libdev18f4520_a-pic18f4520.asm
                  _EEDATA   0x000fa8       data     extern libdev18f4520_a-pic18f4520.asm
                   _FSR0H   0x000fea       data     extern libdev18f4520_a-pic18f4520.asm
                   _FSR0L   0x000fe9       data     extern libdev18f4520_a-pic18f4520.asm
                   _FSR1H   0x000fe2       data     extern libdev18f4520_a-pic18f4520.asm
                   _FSR1L   0x000fe1       data     extern libdev18f4520_a-pic18f4520.asm
                   _FSR2H   0x000fda       data     extern libdev18f4520_a-pic18f4520.asm
                   _FSR2L   0x000fd9       data     extern libdev18f4520_a-pic18f4520.asm
                 _HLVDCON   0x000fd2       data     extern libdev18f4520_a-pic18f4520.asm
             _HLVDCONbits   0x000fd2       data     extern libdev18f4520_a-pic18f4520.asm
                   _INDF0   0x000fef       data     extern libdev18f4520_a-pic18f4520.asm
                   _INDF1   0x000fe7       data     extern libdev18f4520_a-pic18f4520.asm
                   _INDF2   0x000fdf       data     extern libdev18f4520_a-pic18f4520.asm
                  _INTCON   0x000ff2       data     extern libdev18f4520_a-pic18f4520.asm
                 _INTCON2   0x000ff1       data     extern libdev18f4520_a-pic18f4520.asm
             _INTCON2bits   0x000ff1       data     extern libdev18f4520_a-pic18f4520.asm
                 _INTCON3   0x000ff0       data     extern libdev18f4520_a-pic18f4520.asm
             _INTCON3bits   0x000ff0       data     extern libdev18f4520_a-pic18f4520.asm
              _INTCONbits   0x000ff2       data     extern libdev18f4520_a-pic18f4520.asm
                    _IPR1   0x000f9f       data     extern libdev18f4520_a-pic18f4520.asm
                _IPR1bits   0x000f9f       data     extern libdev18f4520_a-pic18f4520.asm
                    _IPR2   0x000fa2       data     extern libdev18f4520_a-pic18f4520.asm
                _IPR2bits   0x000fa2       data     extern libdev18f4520_a-pic18f4520.asm
      _InicializaDisplays   0x000c36    program     extern build/default/production/disp7seg.asm
                    _LATA   0x000f89       data     extern libdev18f4520_a-pic18f4520.asm
                _LATAbits   0x000f89       data     extern libdev18f4520_a-pic18f4520.asm
                    _LATB   0x000f8a       data     extern libdev18f4520_a-pic18f4520.asm
                _LATBbits   0x000f8a       data     extern libdev18f4520_a-pic18f4520.asm
                    _LATC   0x000f8b       data     extern libdev18f4520_a-pic18f4520.asm
                _LATCbits   0x000f8b       data     extern libdev18f4520_a-pic18f4520.asm
                    _LATD   0x000f8c       data     extern libdev18f4520_a-pic18f4520.asm
                _LATDbits   0x000f8c       data     extern libdev18f4520_a-pic18f4520.asm
                    _LATE   0x000f8d       data     extern libdev18f4520_a-pic18f4520.asm
                _LATEbits   0x000f8d       data     extern libdev18f4520_a-pic18f4520.asm
                  _LVDCON   0x000fd2       data     extern libdev18f4520_a-pic18f4520.asm
              _LVDCONbits   0x000fd2       data     extern libdev18f4520_a-pic18f4520.asm
              _MudaDigito   0x000ca4    program     extern build/default/production/disp7seg.asm
                  _OSCCON   0x000fd3       data     extern libdev18f4520_a-pic18f4520.asm
              _OSCCONbits   0x000fd3       data     extern libdev18f4520_a-pic18f4520.asm
                 _OSCTUNE   0x000f9b       data     extern libdev18f4520_a-pic18f4520.asm
             _OSCTUNEbits   0x000f9b       data     extern libdev18f4520_a-pic18f4520.asm
                      _PC   0x000ff9       data     extern libdev18f4520_a-pic18f4520.asm
                     _PCL   0x000ff9       data     extern libdev18f4520_a-pic18f4520.asm
                  _PCLATH   0x000ffa       data     extern libdev18f4520_a-pic18f4520.asm
                  _PCLATU   0x000ffb       data     extern libdev18f4520_a-pic18f4520.asm
                    _PIE1   0x000f9d       data     extern libdev18f4520_a-pic18f4520.asm
                _PIE1bits   0x000f9d       data     extern libdev18f4520_a-pic18f4520.asm
                    _PIE2   0x000fa0       data     extern libdev18f4520_a-pic18f4520.asm
                _PIE2bits   0x000fa0       data     extern libdev18f4520_a-pic18f4520.asm
                    _PIR1   0x000f9e       data     extern libdev18f4520_a-pic18f4520.asm
                _PIR1bits   0x000f9e       data     extern libdev18f4520_a-pic18f4520.asm
                    _PIR2   0x000fa1       data     extern libdev18f4520_a-pic18f4520.asm
                _PIR2bits   0x000fa1       data     extern libdev18f4520_a-pic18f4520.asm
                  _PLUSW0   0x000feb       data     extern libdev18f4520_a-pic18f4520.asm
                  _PLUSW1   0x000fe3       data     extern libdev18f4520_a-pic18f4520.asm
                  _PLUSW2   0x000fdb       data     extern libdev18f4520_a-pic18f4520.asm
                   _PORTA   0x000f80       data     extern libdev18f4520_a-pic18f4520.asm
               _PORTAbits   0x000f80       data     extern libdev18f4520_a-pic18f4520.asm
                   _PORTB   0x000f81       data     extern libdev18f4520_a-pic18f4520.asm
               _PORTBbits   0x000f81       data     extern libdev18f4520_a-pic18f4520.asm
                   _PORTC   0x000f82       data     extern libdev18f4520_a-pic18f4520.asm
               _PORTCbits   0x000f82       data     extern libdev18f4520_a-pic18f4520.asm
                   _PORTD   0x000f83       data     extern libdev18f4520_a-pic18f4520.asm
               _PORTDbits   0x000f83       data     extern libdev18f4520_a-pic18f4520.asm
                   _PORTE   0x000f84       data     extern libdev18f4520_a-pic18f4520.asm
               _PORTEbits   0x000f84       data     extern libdev18f4520_a-pic18f4520.asm
                _POSTDEC0   0x000fed       data     extern libdev18f4520_a-pic18f4520.asm
                _POSTDEC1   0x000fe5       data     extern libdev18f4520_a-pic18f4520.asm
                _POSTDEC2   0x000fdd       data     extern libdev18f4520_a-pic18f4520.asm
                _POSTINC0   0x000fee       data     extern libdev18f4520_a-pic18f4520.asm
                _POSTINC1   0x000fe6       data     extern libdev18f4520_a-pic18f4520.asm
                _POSTINC2   0x000fde       data     extern libdev18f4520_a-pic18f4520.asm
                     _PR2   0x000fcb       data     extern libdev18f4520_a-pic18f4520.asm
                 _PREINC0   0x000fec       data     extern libdev18f4520_a-pic18f4520.asm
                 _PREINC1   0x000fe4       data     extern libdev18f4520_a-pic18f4520.asm
                 _PREINC2   0x000fdc       data     extern libdev18f4520_a-pic18f4520.asm
                    _PROD   0x000ff3       data     extern libdev18f4520_a-pic18f4520.asm
                   _PRODH   0x000ff4       data     extern libdev18f4520_a-pic18f4520.asm
                   _PRODL   0x000ff3       data     extern libdev18f4520_a-pic18f4520.asm
                 _PWM1CON   0x000fb7       data     extern libdev18f4520_a-pic18f4520.asm
             _PWM1CONbits   0x000fb7       data     extern libdev18f4520_a-pic18f4520.asm
                    _RCON   0x000fd0       data     extern libdev18f4520_a-pic18f4520.asm
                _RCONbits   0x000fd0       data     extern libdev18f4520_a-pic18f4520.asm
                   _RCREG   0x000fae       data     extern libdev18f4520_a-pic18f4520.asm
                   _RCSTA   0x000fab       data     extern libdev18f4520_a-pic18f4520.asm
               _RCSTAbits   0x000fab       data     extern libdev18f4520_a-pic18f4520.asm
                   _SPBRG   0x000faf       data     extern libdev18f4520_a-pic18f4520.asm
                  _SPBRGH   0x000fb0       data     extern libdev18f4520_a-pic18f4520.asm
                  _SSPADD   0x000fc8       data     extern libdev18f4520_a-pic18f4520.asm
                  _SSPBUF   0x000fc9       data     extern libdev18f4520_a-pic18f4520.asm
                 _SSPCON1   0x000fc6       data     extern libdev18f4520_a-pic18f4520.asm
             _SSPCON1bits   0x000fc6       data     extern libdev18f4520_a-pic18f4520.asm
                 _SSPCON2   0x000fc5       data     extern libdev18f4520_a-pic18f4520.asm
             _SSPCON2bits   0x000fc5       data     extern libdev18f4520_a-pic18f4520.asm
                 _SSPSTAT   0x000fc7       data     extern libdev18f4520_a-pic18f4520.asm
             _SSPSTATbits   0x000fc7       data     extern libdev18f4520_a-pic18f4520.asm
                  _STATUS   0x000fd8       data     extern libdev18f4520_a-pic18f4520.asm
              _STATUSbits   0x000fd8       data     extern libdev18f4520_a-pic18f4520.asm
                  _STKPTR   0x000ffc       data     extern libdev18f4520_a-pic18f4520.asm
              _STKPTRbits   0x000ffc       data     extern libdev18f4520_a-pic18f4520.asm
                   _T0CON   0x000fd5       data     extern libdev18f4520_a-pic18f4520.asm
               _T0CONbits   0x000fd5       data     extern libdev18f4520_a-pic18f4520.asm
                   _T1CON   0x000fcd       data     extern libdev18f4520_a-pic18f4520.asm
               _T1CONbits   0x000fcd       data     extern libdev18f4520_a-pic18f4520.asm
                   _T2CON   0x000fca       data     extern libdev18f4520_a-pic18f4520.asm
               _T2CONbits   0x000fca       data     extern libdev18f4520_a-pic18f4520.asm
                   _T3CON   0x000fb1       data     extern libdev18f4520_a-pic18f4520.asm
               _T3CONbits   0x000fb1       data     extern libdev18f4520_a-pic18f4520.asm
                  _TABLAT   0x000ff5       data     extern libdev18f4520_a-pic18f4520.asm
                  _TBLPTR   0x000ff6       data     extern libdev18f4520_a-pic18f4520.asm
                 _TBLPTRH   0x000ff7       data     extern libdev18f4520_a-pic18f4520.asm
                 _TBLPTRL   0x000ff6       data     extern libdev18f4520_a-pic18f4520.asm
                 _TBLPTRU   0x000ff8       data     extern libdev18f4520_a-pic18f4520.asm
                    _TMR0   0x000fd6       data     extern libdev18f4520_a-pic18f4520.asm
                   _TMR0H   0x000fd7       data     extern libdev18f4520_a-pic18f4520.asm
                   _TMR0L   0x000fd6       data     extern libdev18f4520_a-pic18f4520.asm
                    _TMR1   0x000fce       data     extern libdev18f4520_a-pic18f4520.asm
                   _TMR1H   0x000fcf       data     extern libdev18f4520_a-pic18f4520.asm
                   _TMR1L   0x000fce       data     extern libdev18f4520_a-pic18f4520.asm
                    _TMR2   0x000fcc       data     extern libdev18f4520_a-pic18f4520.asm
                    _TMR3   0x000fb2       data     extern libdev18f4520_a-pic18f4520.asm
                   _TMR3H   0x000fb3       data     extern libdev18f4520_a-pic18f4520.asm
                   _TMR3L   0x000fb2       data     extern libdev18f4520_a-pic18f4520.asm
                     _TOS   0x000ffd       data     extern libdev18f4520_a-pic18f4520.asm
                    _TOSH   0x000ffe       data     extern libdev18f4520_a-pic18f4520.asm
                    _TOSL   0x000ffd       data     extern libdev18f4520_a-pic18f4520.asm
                    _TOSU   0x000fff       data     extern libdev18f4520_a-pic18f4520.asm
                   _TRISA   0x000f92       data     extern libdev18f4520_a-pic18f4520.asm
               _TRISAbits   0x000f92       data     extern libdev18f4520_a-pic18f4520.asm
                   _TRISB   0x000f93       data     extern libdev18f4520_a-pic18f4520.asm
               _TRISBbits   0x000f93       data     extern libdev18f4520_a-pic18f4520.asm
                   _TRISC   0x000f94       data     extern libdev18f4520_a-pic18f4520.asm
               _TRISCbits   0x000f94       data     extern libdev18f4520_a-pic18f4520.asm
                   _TRISD   0x000f95       data     extern libdev18f4520_a-pic18f4520.asm
               _TRISDbits   0x000f95       data     extern libdev18f4520_a-pic18f4520.asm
                   _TRISE   0x000f96       data     extern libdev18f4520_a-pic18f4520.asm
               _TRISEbits   0x000f96       data     extern libdev18f4520_a-pic18f4520.asm
                   _TXREG   0x000fad       data     extern libdev18f4520_a-pic18f4520.asm
                   _TXSTA   0x000fac       data     extern libdev18f4520_a-pic18f4520.asm
               _TXSTAbits   0x000fac       data     extern libdev18f4520_a-pic18f4520.asm
                  _WDTCON   0x000fd1       data     extern libdev18f4520_a-pic18f4520.asm
              _WDTCONbits   0x000fd1       data     extern libdev18f4520_a-pic18f4520.asm
                    _WREG   0x000fe8       data     extern libdev18f4520_a-pic18f4520.asm
                 ___fsadd   0x000004    program     extern fsadd.asm
        ___fsadd_fl1_1_22   0x000088       data     static fsadd.asm
        ___fsadd_fl2_1_22   0x00008c       data     static fsadd.asm
                  ___fslt   0x000746    program     extern fslt.asm
         ___fslt_fl1_1_22   0x000080       data     static fslt.asm
         ___fslt_fl2_1_22   0x000084       data     static fslt.asm
                ___uflags   0x000095       data     extern crt0i.asm
                __divsint   0x000864    program     extern divsint.asm
                __divuint   0x000ae8    program     extern divuint.asm
                  __entry   0x000000    program     extern crt0i.asm
                __modsint   0x000952    program     extern modsint.asm
                __moduint   0x000a2e    program     extern moduint.asm
                __startup   0x000b98    program     extern crt0i.asm
                   _cinit   0x000d04    program     extern 
                 _display   0x000090       data     static build/default/production/disp7seg.asm
                    _main   0x00058a    program     extern build/default/production/Aula6.asm
                   _stack   0x000100       data     extern /home/sdcc-builder/build/sdcc-build/orig/sdcc/device/lib/pic16/libsdcc/stack/stack.S
               _stack_end   0x0001ff       data     extern /home/sdcc-builder/build/sdcc-build/orig/sdcc/device/lib/pic16/libsdcc/stack/stack.S
                      _v0   0x000091       data     static build/default/production/disp7seg.asm
                      _v1   0x000092       data     static build/default/production/disp7seg.asm
                      _v2   0x000093       data     static build/default/production/disp7seg.asm
                      _v3   0x000094       data     static build/default/production/disp7seg.asm
                   _valor   0x000cf4    program     static build/default/production/disp7seg.asm
                copy_loop   0x000c0e    program     static crt0i.asm
            copy_loop_dec   0x000c14    program     static crt0i.asm
               entry_loop   0x000bc0    program     static crt0i.asm
           entry_loop_dec   0x000c28    program     static crt0i.asm
                   lockup   0x000c34    program     static crt0i.asm
                    r0x00   0x000000       data     static build/default/production/Aula6.asm
                    r0x00   0x000000       data     static fsadd.asm
                    r0x00   0x000000       data     static divuint.asm
                    r0x00   0x000000       data     static moduint.asm
                    r0x00   0x000000       data     static modsint.asm
                    r0x00   0x000000       data     static build/default/production/disp7seg.asm
                    r0x00   0x000000       data     static divsint.asm
                    r0x00   0x000000       data     static fslt.asm
                    r0x01   0x000001       data     static fsadd.asm
                    r0x01   0x000001       data     static fslt.asm
                    r0x01   0x000001       data     static build/default/production/Aula6.asm
                    r0x01   0x000001       data     static moduint.asm
                    r0x01   0x000001       data     static divsint.asm
                    r0x01   0x000001       data     static build/default/production/disp7seg.asm
                    r0x01   0x000001       data     static divuint.asm
                    r0x01   0x000001       data     static modsint.asm
                    r0x02   0x000002       data     static divsint.asm
                    r0x02   0x000002       data     static build/default/production/disp7seg.asm
                    r0x02   0x000002       data     static divuint.asm
                    r0x02   0x000002       data     static moduint.asm
                    r0x02   0x000002       data     static modsint.asm
                    r0x02   0x000002       data     static fsadd.asm
                    r0x02   0x000002       data     static fslt.asm
                    r0x02   0x000002       data     static build/default/production/Aula6.asm
                    r0x03   0x000003       data     static fsadd.asm
                    r0x03   0x000003       data     static divsint.asm
                    r0x03   0x000003       data     static moduint.asm
                    r0x03   0x000003       data     static divuint.asm
                    r0x03   0x000003       data     static build/default/production/Aula6.asm
                    r0x03   0x000003       data     static modsint.asm
                    r0x03   0x000003       data     static fslt.asm
                    r0x04   0x000004       data     static divuint.asm
                    r0x04   0x000004       data     static fsadd.asm
                    r0x04   0x000004       data     static fslt.asm
                    r0x04   0x000004       data     static divsint.asm
                    r0x04   0x000004       data     static modsint.asm
                    r0x04   0x000004       data     static moduint.asm
                    r0x04   0x000004       data     static build/default/production/Aula6.asm
                    r0x05   0x000005       data     static modsint.asm
                    r0x05   0x000005       data     static divuint.asm
                    r0x05   0x000005       data     static moduint.asm
                    r0x05   0x000005       data     static fslt.asm
                    r0x05   0x000005       data     static divsint.asm
                    r0x05   0x000005       data     static fsadd.asm
                    r0x05   0x000005       data     static build/default/production/Aula6.asm
                    r0x06   0x000006       data     static divsint.asm
                    r0x06   0x000006       data     static divuint.asm
                    r0x06   0x000006       data     static fsadd.asm
                    r0x06   0x000006       data     static build/default/production/Aula6.asm
                    r0x06   0x000006       data     static fslt.asm
                    r0x06   0x000006       data     static modsint.asm
                    r0x06   0x000006       data     static moduint.asm
                    r0x07   0x000007       data     static build/default/production/Aula6.asm
                    r0x07   0x000007       data     static divuint.asm
                    r0x07   0x000007       data     static fsadd.asm
                    r0x07   0x000007       data     static divsint.asm
                    r0x07   0x000007       data     static fslt.asm
                    r0x08   0x000008       data     static fsadd.asm
                    r0x08   0x000008       data     static build/default/production/Aula6.asm
                    r0x09   0x000009       data     static fsadd.asm
                    r0x0a   0x00000a       data     static fsadd.asm
                    r0x0b   0x00000b       data     static fsadd.asm
                    r0x0c   0x00000c       data     static fsadd.asm
                    r0x0d   0x00000d       data     static fsadd.asm
                    r0x0e   0x00000e       data     static fsadd.asm
                    r0x0f   0x00000f       data     static fsadd.asm
                    r0x10   0x000010       data     static fsadd.asm



                              Symbols - Sorted by Address
                     Name    Address   Location    Storage File
                ---------  ---------  ---------  --------- ---------
                    r0x00   0x000000       data     static fslt.asm
                  __entry   0x000000    program     extern crt0i.asm
                    r0x00   0x000000       data     static build/default/production/Aula6.asm
                    r0x00   0x000000       data     static fsadd.asm
                    r0x00   0x000000       data     static divuint.asm
                    r0x00   0x000000       data     static moduint.asm
                    r0x00   0x000000       data     static modsint.asm
                    r0x00   0x000000       data     static build/default/production/disp7seg.asm
                    r0x00   0x000000       data     static divsint.asm
                    r0x01   0x000001       data     static moduint.asm
                    r0x01   0x000001       data     static fsadd.asm
                    r0x01   0x000001       data     static fslt.asm
                    r0x01   0x000001       data     static build/default/production/Aula6.asm
                    r0x01   0x000001       data     static divuint.asm
                    r0x01   0x000001       data     static divsint.asm
                    r0x01   0x000001       data     static build/default/production/disp7seg.asm
                    r0x01   0x000001       data     static modsint.asm
                    r0x02   0x000002       data     static build/default/production/disp7seg.asm
                    r0x02   0x000002       data     static divsint.asm
                    r0x02   0x000002       data     static fslt.asm
                    r0x02   0x000002       data     static divuint.asm
                    r0x02   0x000002       data     static moduint.asm
                    r0x02   0x000002       data     static modsint.asm
                    r0x02   0x000002       data     static fsadd.asm
                    r0x02   0x000002       data     static build/default/production/Aula6.asm
                    r0x03   0x000003       data     static divuint.asm
                    r0x03   0x000003       data     static fsadd.asm
                    r0x03   0x000003       data     static divsint.asm
                    r0x03   0x000003       data     static moduint.asm
                    r0x03   0x000003       data     static modsint.asm
                    r0x03   0x000003       data     static fslt.asm
                    r0x03   0x000003       data     static build/default/production/Aula6.asm
                    r0x04   0x000004       data     static fslt.asm
                    r0x04   0x000004       data     static fsadd.asm
                    r0x04   0x000004       data     static divuint.asm
                    r0x04   0x000004       data     static moduint.asm
                    r0x04   0x000004       data     static build/default/production/Aula6.asm
                    r0x04   0x000004       data     static divsint.asm
                    r0x04   0x000004       data     static modsint.asm
                 ___fsadd   0x000004    program     extern fsadd.asm
                    r0x05   0x000005       data     static divuint.asm
                    r0x05   0x000005       data     static moduint.asm
                    r0x05   0x000005       data     static fslt.asm
                    r0x05   0x000005       data     static divsint.asm
                    r0x05   0x000005       data     static fsadd.asm
                    r0x05   0x000005       data     static build/default/production/Aula6.asm
                    r0x05   0x000005       data     static modsint.asm
                    r0x06   0x000006       data     static divsint.asm
                    r0x06   0x000006       data     static divuint.asm
                    r0x06   0x000006       data     static fsadd.asm
                    r0x06   0x000006       data     static build/default/production/Aula6.asm
                    r0x06   0x000006       data     static fslt.asm
                    r0x06   0x000006       data     static modsint.asm
                    r0x06   0x000006       data     static moduint.asm
                    r0x07   0x000007       data     static divuint.asm
                    r0x07   0x000007       data     static fsadd.asm
                    r0x07   0x000007       data     static divsint.asm
                    r0x07   0x000007       data     static fslt.asm
                    r0x07   0x000007       data     static build/default/production/Aula6.asm
                    r0x08   0x000008       data     static fsadd.asm
                    r0x08   0x000008       data     static build/default/production/Aula6.asm
                    r0x09   0x000009       data     static fsadd.asm
                    r0x0a   0x00000a       data     static fsadd.asm
                    r0x0b   0x00000b       data     static fsadd.asm
                    r0x0c   0x00000c       data     static fsadd.asm
                    r0x0d   0x00000d       data     static fsadd.asm
                    r0x0e   0x00000e       data     static fsadd.asm
                    r0x0f   0x00000f       data     static fsadd.asm
                    r0x10   0x000010       data     static fsadd.asm
         ___fslt_fl1_1_22   0x000080       data     static fslt.asm
         ___fslt_fl2_1_22   0x000084       data     static fslt.asm
        ___fsadd_fl1_1_22   0x000088       data     static fsadd.asm
        ___fsadd_fl2_1_22   0x00008c       data     static fsadd.asm
                 _display   0x000090       data     static build/default/production/disp7seg.asm
                      _v0   0x000091       data     static build/default/production/disp7seg.asm
                      _v1   0x000092       data     static build/default/production/disp7seg.asm
                      _v2   0x000093       data     static build/default/production/disp7seg.asm
                      _v3   0x000094       data     static build/default/production/disp7seg.asm
                ___uflags   0x000095       data     extern crt0i.asm
               _00106_DS_   0x0000ca    program     static fsadd.asm
               _00108_DS_   0x0000e8    program     static fsadd.asm
                   _stack   0x000100       data     extern /home/sdcc-builder/build/sdcc-build/orig/sdcc/device/lib/pic16/libsdcc/stack/stack.S
               _00181_DS_   0x00011e    program     static fsadd.asm
               _00110_DS_   0x000132    program     static fsadd.asm
               _00182_DS_   0x00014c    program     static fsadd.asm
               _00112_DS_   0x000160    program     static fsadd.asm
               _00114_DS_   0x0001aa    program     static fsadd.asm
               _00116_DS_   0x0001cc    program     static fsadd.asm
               _00189_DS_   0x0001de    program     static fsadd.asm
               _00191_DS_   0x0001f4    program     static fsadd.asm
               _stack_end   0x0001ff       data     extern /home/sdcc-builder/build/sdcc-build/orig/sdcc/device/lib/pic16/libsdcc/stack/stack.S
               _00193_DS_   0x000206    program     static fsadd.asm
               _00192_DS_   0x000208    program     static fsadd.asm
               _00190_DS_   0x000214    program     static fsadd.asm
               _00118_DS_   0x000216    program     static fsadd.asm
               _00195_DS_   0x00022a    program     static fsadd.asm
               _00197_DS_   0x00023c    program     static fsadd.asm
               _00196_DS_   0x00023e    program     static fsadd.asm
               _00194_DS_   0x00024a    program     static fsadd.asm
               _00119_DS_   0x000252    program     static fsadd.asm
               _00198_DS_   0x00027e    program     static fsadd.asm
               _00123_DS_   0x00028a    program     static fsadd.asm
               _00125_DS_   0x00029e    program     static fsadd.asm
               _00199_DS_   0x0002c4    program     static fsadd.asm
               _00130_DS_   0x0002d8    program     static fsadd.asm
               _00129_DS_   0x0002fa    program     static fsadd.asm
               _00132_DS_   0x00030a    program     static fsadd.asm
               _00133_DS_   0x000368    program     static fsadd.asm
         _AtualizaDisplay   0x0003b2    program     extern build/default/production/disp7seg.asm
               _00152_DS_   0x000416    program     static build/default/production/disp7seg.asm
               _00137_DS_   0x000426    program     static build/default/production/disp7seg.asm
               _00138_DS_   0x00047a    program     static build/default/production/disp7seg.asm
               _00139_DS_   0x0004ce    program     static build/default/production/disp7seg.asm
               _00140_DS_   0x000522    program     static build/default/production/disp7seg.asm
               _00141_DS_   0x000574    program     static build/default/production/disp7seg.asm
               _00143_DS_   0x000578    program     static build/default/production/disp7seg.asm
                    _main   0x00058a    program     extern build/default/production/Aula6.asm
               _00113_DS_   0x000596    program     static build/default/production/Aula6.asm
               _00132_DS_   0x0006bc    program     static build/default/production/Aula6.asm
               _00133_DS_   0x0006be    program     static build/default/production/Aula6.asm
               _00106_DS_   0x0006c6    program     static build/default/production/Aula6.asm
               _00134_DS_   0x0006d0    program     static build/default/production/Aula6.asm
               _00135_DS_   0x0006d2    program     static build/default/production/Aula6.asm
               _00108_DS_   0x0006d6    program     static build/default/production/Aula6.asm
               _00112_DS_   0x0006de    program     static build/default/production/Aula6.asm
                  ___fslt   0x000746    program     extern fslt.asm
               _00126_DS_   0x000800    program     static fslt.asm
               _00106_DS_   0x000806    program     static fslt.asm
               _00108_DS_   0x00080a    program     static fslt.asm
               _00127_DS_   0x000836    program     static fslt.asm
               _00111_DS_   0x00083c    program     static fslt.asm
               _00112_DS_   0x00083e    program     static fslt.asm
                __divsint   0x000864    program     extern divsint.asm
               _00110_DS_   0x0008c0    program     static divsint.asm
               _00111_DS_   0x0008c8    program     static divsint.asm
               _00112_DS_   0x0008e4    program     static divsint.asm
               _00113_DS_   0x0008ec    program     static divsint.asm
               _00106_DS_   0x000926    program     static divsint.asm
               _00108_DS_   0x00092c    program     static divsint.asm
                __modsint   0x000952    program     extern modsint.asm
               _00110_DS_   0x0009aa    program     static modsint.asm
               _00111_DS_   0x0009b2    program     static modsint.asm
               _00112_DS_   0x0009c8    program     static modsint.asm
               _00113_DS_   0x0009d0    program     static modsint.asm
               _00106_DS_   0x000a06    program     static modsint.asm
               _00108_DS_   0x000a0c    program     static modsint.asm
                __moduint   0x000a2e    program     extern moduint.asm
               _00107_DS_   0x000a6e    program     static moduint.asm
               _00136_DS_   0x000a8a    program     static moduint.asm
               _00106_DS_   0x000a94    program     static moduint.asm
               _00112_DS_   0x000a9c    program     static moduint.asm
               _00137_DS_   0x000aa6    program     static moduint.asm
               _00111_DS_   0x000ab0    program     static moduint.asm
                __divuint   0x000ae8    program     extern divuint.asm
               _00109_DS_   0x000b30    program     static divuint.asm
               _00127_DS_   0x000b54    program     static divuint.asm
               _00110_DS_   0x000b60    program     static divuint.asm
                __startup   0x000b98    program     extern crt0i.asm
               entry_loop   0x000bc0    program     static crt0i.asm
                copy_loop   0x000c0e    program     static crt0i.asm
            copy_loop_dec   0x000c14    program     static crt0i.asm
           entry_loop_dec   0x000c28    program     static crt0i.asm
                   lockup   0x000c34    program     static crt0i.asm
      _InicializaDisplays   0x000c36    program     extern build/default/production/disp7seg.asm
              _MudaDigito   0x000ca4    program     extern build/default/production/disp7seg.asm
               _00106_DS_   0x000cc8    program     static build/default/production/disp7seg.asm
               _00108_DS_   0x000cd2    program     static build/default/production/disp7seg.asm
               _00110_DS_   0x000cdc    program     static build/default/production/disp7seg.asm
               _00113_DS_   0x000ce6    program     static build/default/production/disp7seg.asm
                   _valor   0x000cf4    program     static build/default/production/disp7seg.asm
                   _cinit   0x000d04    program     extern 
                   _PORTA   0x000f80       data     extern libdev18f4520_a-pic18f4520.asm
               _PORTAbits   0x000f80       data     extern libdev18f4520_a-pic18f4520.asm
               _PORTBbits   0x000f81       data     extern libdev18f4520_a-pic18f4520.asm
                   _PORTB   0x000f81       data     extern libdev18f4520_a-pic18f4520.asm
                   _PORTC   0x000f82       data     extern libdev18f4520_a-pic18f4520.asm
               _PORTCbits   0x000f82       data     extern libdev18f4520_a-pic18f4520.asm
               _PORTDbits   0x000f83       data     extern libdev18f4520_a-pic18f4520.asm
                   _PORTD   0x000f83       data     extern libdev18f4520_a-pic18f4520.asm
                   _PORTE   0x000f84       data     extern libdev18f4520_a-pic18f4520.asm
               _PORTEbits   0x000f84       data     extern libdev18f4520_a-pic18f4520.asm
                    _LATA   0x000f89       data     extern libdev18f4520_a-pic18f4520.asm
                _LATAbits   0x000f89       data     extern libdev18f4520_a-pic18f4520.asm
                _LATBbits   0x000f8a       data     extern libdev18f4520_a-pic18f4520.asm
                    _LATB   0x000f8a       data     extern libdev18f4520_a-pic18f4520.asm
                    _LATC   0x000f8b       data     extern libdev18f4520_a-pic18f4520.asm
                _LATCbits   0x000f8b       data     extern libdev18f4520_a-pic18f4520.asm
                _LATDbits   0x000f8c       data     extern libdev18f4520_a-pic18f4520.asm
                    _LATD   0x000f8c       data     extern libdev18f4520_a-pic18f4520.asm
                    _LATE   0x000f8d       data     extern libdev18f4520_a-pic18f4520.asm
                _LATEbits   0x000f8d       data     extern libdev18f4520_a-pic18f4520.asm
                   _TRISA   0x000f92       data     extern libdev18f4520_a-pic18f4520.asm
                    _DDRA   0x000f92       data     extern libdev18f4520_a-pic18f4520.asm
                _DDRAbits   0x000f92       data     extern libdev18f4520_a-pic18f4520.asm
               _TRISAbits   0x000f92       data     extern libdev18f4520_a-pic18f4520.asm
                    _DDRB   0x000f93       data     extern libdev18f4520_a-pic18f4520.asm
                _DDRBbits   0x000f93       data     extern libdev18f4520_a-pic18f4520.asm
                   _TRISB   0x000f93       data     extern libdev18f4520_a-pic18f4520.asm
               _TRISBbits   0x000f93       data     extern libdev18f4520_a-pic18f4520.asm
                    _DDRC   0x000f94       data     extern libdev18f4520_a-pic18f4520.asm
                   _TRISC   0x000f94       data     extern libdev18f4520_a-pic18f4520.asm
                _DDRCbits   0x000f94       data     extern libdev18f4520_a-pic18f4520.asm
               _TRISCbits   0x000f94       data     extern libdev18f4520_a-pic18f4520.asm
                   _TRISD   0x000f95       data     extern libdev18f4520_a-pic18f4520.asm
                    _DDRD   0x000f95       data     extern libdev18f4520_a-pic18f4520.asm
                _DDRDbits   0x000f95       data     extern libdev18f4520_a-pic18f4520.asm
               _TRISDbits   0x000f95       data     extern libdev18f4520_a-pic18f4520.asm
                   _TRISE   0x000f96       data     extern libdev18f4520_a-pic18f4520.asm
               _TRISEbits   0x000f96       data     extern libdev18f4520_a-pic18f4520.asm
                    _DDRE   0x000f96       data     extern libdev18f4520_a-pic18f4520.asm
                _DDREbits   0x000f96       data     extern libdev18f4520_a-pic18f4520.asm
             _OSCTUNEbits   0x000f9b       data     extern libdev18f4520_a-pic18f4520.asm
                 _OSCTUNE   0x000f9b       data     extern libdev18f4520_a-pic18f4520.asm
                _PIE1bits   0x000f9d       data     extern libdev18f4520_a-pic18f4520.asm
                    _PIE1   0x000f9d       data     extern libdev18f4520_a-pic18f4520.asm
                _PIR1bits   0x000f9e       data     extern libdev18f4520_a-pic18f4520.asm
                    _PIR1   0x000f9e       data     extern libdev18f4520_a-pic18f4520.asm
                    _IPR1   0x000f9f       data     extern libdev18f4520_a-pic18f4520.asm
                _IPR1bits   0x000f9f       data     extern libdev18f4520_a-pic18f4520.asm
                _PIE2bits   0x000fa0       data     extern libdev18f4520_a-pic18f4520.asm
                    _PIE2   0x000fa0       data     extern libdev18f4520_a-pic18f4520.asm
                _PIR2bits   0x000fa1       data     extern libdev18f4520_a-pic18f4520.asm
                    _PIR2   0x000fa1       data     extern libdev18f4520_a-pic18f4520.asm
                    _IPR2   0x000fa2       data     extern libdev18f4520_a-pic18f4520.asm
                _IPR2bits   0x000fa2       data     extern libdev18f4520_a-pic18f4520.asm
              _EECON1bits   0x000fa6       data     extern libdev18f4520_a-pic18f4520.asm
                  _EECON1   0x000fa6       data     extern libdev18f4520_a-pic18f4520.asm
                  _EECON2   0x000fa7       data     extern libdev18f4520_a-pic18f4520.asm
                  _EEDATA   0x000fa8       data     extern libdev18f4520_a-pic18f4520.asm
                   _EEADR   0x000fa9       data     extern libdev18f4520_a-pic18f4520.asm
                   _RCSTA   0x000fab       data     extern libdev18f4520_a-pic18f4520.asm
               _RCSTAbits   0x000fab       data     extern libdev18f4520_a-pic18f4520.asm
               _TXSTAbits   0x000fac       data     extern libdev18f4520_a-pic18f4520.asm
                   _TXSTA   0x000fac       data     extern libdev18f4520_a-pic18f4520.asm
                   _TXREG   0x000fad       data     extern libdev18f4520_a-pic18f4520.asm
                   _RCREG   0x000fae       data     extern libdev18f4520_a-pic18f4520.asm
                   _SPBRG   0x000faf       data     extern libdev18f4520_a-pic18f4520.asm
                  _SPBRGH   0x000fb0       data     extern libdev18f4520_a-pic18f4520.asm
                   _T3CON   0x000fb1       data     extern libdev18f4520_a-pic18f4520.asm
               _T3CONbits   0x000fb1       data     extern libdev18f4520_a-pic18f4520.asm
                    _TMR3   0x000fb2       data     extern libdev18f4520_a-pic18f4520.asm
                   _TMR3L   0x000fb2       data     extern libdev18f4520_a-pic18f4520.asm
                   _TMR3H   0x000fb3       data     extern libdev18f4520_a-pic18f4520.asm
                   _CMCON   0x000fb4       data     extern libdev18f4520_a-pic18f4520.asm
               _CMCONbits   0x000fb4       data     extern libdev18f4520_a-pic18f4520.asm
              _CVRCONbits   0x000fb5       data     extern libdev18f4520_a-pic18f4520.asm
                  _CVRCON   0x000fb5       data     extern libdev18f4520_a-pic18f4520.asm
             _ECCP1ASbits   0x000fb6       data     extern libdev18f4520_a-pic18f4520.asm
              _ECCPASbits   0x000fb6       data     extern libdev18f4520_a-pic18f4520.asm
                  _ECCPAS   0x000fb6       data     extern libdev18f4520_a-pic18f4520.asm
                 _ECCP1AS   0x000fb6       data     extern libdev18f4520_a-pic18f4520.asm
                 _PWM1CON   0x000fb7       data     extern libdev18f4520_a-pic18f4520.asm
             _PWM1CONbits   0x000fb7       data     extern libdev18f4520_a-pic18f4520.asm
                _ECCP1DEL   0x000fb7       data     extern libdev18f4520_a-pic18f4520.asm
            _ECCP1DELbits   0x000fb7       data     extern libdev18f4520_a-pic18f4520.asm
                 _BAUDCON   0x000fb8       data     extern libdev18f4520_a-pic18f4520.asm
                 _BAUDCTL   0x000fb8       data     extern libdev18f4520_a-pic18f4520.asm
             _BAUDCONbits   0x000fb8       data     extern libdev18f4520_a-pic18f4520.asm
             _BAUDCTLbits   0x000fb8       data     extern libdev18f4520_a-pic18f4520.asm
                 _CCP2CON   0x000fba       data     extern libdev18f4520_a-pic18f4520.asm
             _CCP2CONbits   0x000fba       data     extern libdev18f4520_a-pic18f4520.asm
                   _CCPR2   0x000fbb       data     extern libdev18f4520_a-pic18f4520.asm
                  _CCPR2L   0x000fbb       data     extern libdev18f4520_a-pic18f4520.asm
                  _CCPR2H   0x000fbc       data     extern libdev18f4520_a-pic18f4520.asm
                 _CCP1CON   0x000fbd       data     extern libdev18f4520_a-pic18f4520.asm
             _CCP1CONbits   0x000fbd       data     extern libdev18f4520_a-pic18f4520.asm
                  _CCPR1L   0x000fbe       data     extern libdev18f4520_a-pic18f4520.asm
                   _CCPR1   0x000fbe       data     extern libdev18f4520_a-pic18f4520.asm
                  _CCPR1H   0x000fbf       data     extern libdev18f4520_a-pic18f4520.asm
              _ADCON2bits   0x000fc0       data     extern libdev18f4520_a-pic18f4520.asm
                  _ADCON2   0x000fc0       data     extern libdev18f4520_a-pic18f4520.asm
                  _ADCON1   0x000fc1       data     extern libdev18f4520_a-pic18f4520.asm
              _ADCON1bits   0x000fc1       data     extern libdev18f4520_a-pic18f4520.asm
              _ADCON0bits   0x000fc2       data     extern libdev18f4520_a-pic18f4520.asm
                  _ADCON0   0x000fc2       data     extern libdev18f4520_a-pic18f4520.asm
                  _ADRESL   0x000fc3       data     extern libdev18f4520_a-pic18f4520.asm
                   _ADRES   0x000fc3       data     extern libdev18f4520_a-pic18f4520.asm
                  _ADRESH   0x000fc4       data     extern libdev18f4520_a-pic18f4520.asm
             _SSPCON2bits   0x000fc5       data     extern libdev18f4520_a-pic18f4520.asm
                 _SSPCON2   0x000fc5       data     extern libdev18f4520_a-pic18f4520.asm
                 _SSPCON1   0x000fc6       data     extern libdev18f4520_a-pic18f4520.asm
             _SSPCON1bits   0x000fc6       data     extern libdev18f4520_a-pic18f4520.asm
                 _SSPSTAT   0x000fc7       data     extern libdev18f4520_a-pic18f4520.asm
             _SSPSTATbits   0x000fc7       data     extern libdev18f4520_a-pic18f4520.asm
                  _SSPADD   0x000fc8       data     extern libdev18f4520_a-pic18f4520.asm
                  _SSPBUF   0x000fc9       data     extern libdev18f4520_a-pic18f4520.asm
               _T2CONbits   0x000fca       data     extern libdev18f4520_a-pic18f4520.asm
                   _T2CON   0x000fca       data     extern libdev18f4520_a-pic18f4520.asm
                     _PR2   0x000fcb       data     extern libdev18f4520_a-pic18f4520.asm
                    _TMR2   0x000fcc       data     extern libdev18f4520_a-pic18f4520.asm
                   _T1CON   0x000fcd       data     extern libdev18f4520_a-pic18f4520.asm
               _T1CONbits   0x000fcd       data     extern libdev18f4520_a-pic18f4520.asm
                    _TMR1   0x000fce       data     extern libdev18f4520_a-pic18f4520.asm
                   _TMR1L   0x000fce       data     extern libdev18f4520_a-pic18f4520.asm
                   _TMR1H   0x000fcf       data     extern libdev18f4520_a-pic18f4520.asm
                _RCONbits   0x000fd0       data     extern libdev18f4520_a-pic18f4520.asm
                    _RCON   0x000fd0       data     extern libdev18f4520_a-pic18f4520.asm
                  _WDTCON   0x000fd1       data     extern libdev18f4520_a-pic18f4520.asm
              _WDTCONbits   0x000fd1       data     extern libdev18f4520_a-pic18f4520.asm
              _LVDCONbits   0x000fd2       data     extern libdev18f4520_a-pic18f4520.asm
                  _LVDCON   0x000fd2       data     extern libdev18f4520_a-pic18f4520.asm
                 _HLVDCON   0x000fd2       data     extern libdev18f4520_a-pic18f4520.asm
             _HLVDCONbits   0x000fd2       data     extern libdev18f4520_a-pic18f4520.asm
              _OSCCONbits   0x000fd3       data     extern libdev18f4520_a-pic18f4520.asm
                  _OSCCON   0x000fd3       data     extern libdev18f4520_a-pic18f4520.asm
                   _T0CON   0x000fd5       data     extern libdev18f4520_a-pic18f4520.asm
               _T0CONbits   0x000fd5       data     extern libdev18f4520_a-pic18f4520.asm
                   _TMR0L   0x000fd6       data     extern libdev18f4520_a-pic18f4520.asm
                    _TMR0   0x000fd6       data     extern libdev18f4520_a-pic18f4520.asm
                   _TMR0H   0x000fd7       data     extern libdev18f4520_a-pic18f4520.asm
              _STATUSbits   0x000fd8       data     extern libdev18f4520_a-pic18f4520.asm
                  _STATUS   0x000fd8       data     extern libdev18f4520_a-pic18f4520.asm
                   _FSR2L   0x000fd9       data     extern libdev18f4520_a-pic18f4520.asm
                   _FSR2H   0x000fda       data     extern libdev18f4520_a-pic18f4520.asm
                  _PLUSW2   0x000fdb       data     extern libdev18f4520_a-pic18f4520.asm
                 _PREINC2   0x000fdc       data     extern libdev18f4520_a-pic18f4520.asm
                _POSTDEC2   0x000fdd       data     extern libdev18f4520_a-pic18f4520.asm
                _POSTINC2   0x000fde       data     extern libdev18f4520_a-pic18f4520.asm
                   _INDF2   0x000fdf       data     extern libdev18f4520_a-pic18f4520.asm
                     _BSR   0x000fe0       data     extern libdev18f4520_a-pic18f4520.asm
                   _FSR1L   0x000fe1       data     extern libdev18f4520_a-pic18f4520.asm
                   _FSR1H   0x000fe2       data     extern libdev18f4520_a-pic18f4520.asm
                  _PLUSW1   0x000fe3       data     extern libdev18f4520_a-pic18f4520.asm
                 _PREINC1   0x000fe4       data     extern libdev18f4520_a-pic18f4520.asm
                _POSTDEC1   0x000fe5       data     extern libdev18f4520_a-pic18f4520.asm
                _POSTINC1   0x000fe6       data     extern libdev18f4520_a-pic18f4520.asm
                   _INDF1   0x000fe7       data     extern libdev18f4520_a-pic18f4520.asm
                    _WREG   0x000fe8       data     extern libdev18f4520_a-pic18f4520.asm
                   _FSR0L   0x000fe9       data     extern libdev18f4520_a-pic18f4520.asm
                   _FSR0H   0x000fea       data     extern libdev18f4520_a-pic18f4520.asm
                  _PLUSW0   0x000feb       data     extern libdev18f4520_a-pic18f4520.asm
                 _PREINC0   0x000fec       data     extern libdev18f4520_a-pic18f4520.asm
                _POSTDEC0   0x000fed       data     extern libdev18f4520_a-pic18f4520.asm
                _POSTINC0   0x000fee       data     extern libdev18f4520_a-pic18f4520.asm
                   _INDF0   0x000fef       data     extern libdev18f4520_a-pic18f4520.asm
             _INTCON3bits   0x000ff0       data     extern libdev18f4520_a-pic18f4520.asm
                 _INTCON3   0x000ff0       data     extern libdev18f4520_a-pic18f4520.asm
                 _INTCON2   0x000ff1       data     extern libdev18f4520_a-pic18f4520.asm
             _INTCON2bits   0x000ff1       data     extern libdev18f4520_a-pic18f4520.asm
              _INTCONbits   0x000ff2       data     extern libdev18f4520_a-pic18f4520.asm
                  _INTCON   0x000ff2       data     extern libdev18f4520_a-pic18f4520.asm
                    _PROD   0x000ff3       data     extern libdev18f4520_a-pic18f4520.asm
                   _PRODL   0x000ff3       data     extern libdev18f4520_a-pic18f4520.asm
                   _PRODH   0x000ff4       data     extern libdev18f4520_a-pic18f4520.asm
                  _TABLAT   0x000ff5       data     extern libdev18f4520_a-pic18f4520.asm
                 _TBLPTRL   0x000ff6       data     extern libdev18f4520_a-pic18f4520.asm
                  _TBLPTR   0x000ff6       data     extern libdev18f4520_a-pic18f4520.asm
                 _TBLPTRH   0x000ff7       data     extern libdev18f4520_a-pic18f4520.asm
                 _TBLPTRU   0x000ff8       data     extern libdev18f4520_a-pic18f4520.asm
                      _PC   0x000ff9       data     extern libdev18f4520_a-pic18f4520.asm
                     _PCL   0x000ff9       data     extern libdev18f4520_a-pic18f4520.asm
                  _PCLATH   0x000ffa       data     extern libdev18f4520_a-pic18f4520.asm
                  _PCLATU   0x000ffb       data     extern libdev18f4520_a-pic18f4520.asm
                  _STKPTR   0x000ffc       data     extern libdev18f4520_a-pic18f4520.asm
              _STKPTRbits   0x000ffc       data     extern libdev18f4520_a-pic18f4520.asm
                    _TOSL   0x000ffd       data     extern libdev18f4520_a-pic18f4520.asm
                     _TOS   0x000ffd       data     extern libdev18f4520_a-pic18f4520.asm
                    _TOSH   0x000ffe       data     extern libdev18f4520_a-pic18f4520.asm
                    _TOSU   0x000fff       data     extern libdev18f4520_a-pic18f4520.asm


