;--------------------------------------------------------
; File Created by SDCC : free open source ANSI-C Compiler
; Version 3.5.0 #9253 (Jun 20 2015) (MINGW64)
; This file was generated Thu Sep 29 08:11:36 2016
;--------------------------------------------------------
; PIC16 port for the Microchip 16-bit core micros
;--------------------------------------------------------
	list	p=18f4520
	radix	dec


;--------------------------------------------------------
; public variables in this module
;--------------------------------------------------------
	global	_MudaDigito
	global	_AtualizaDisplay
	global	_InicializaDisplays

;--------------------------------------------------------
;	Equates to used internal registers
;--------------------------------------------------------
STATUS	equ	0xfd8
PCL	equ	0xff9
PCLATH	equ	0xffa
PCLATU	equ	0xffb
WREG	equ	0xfe8
TBLPTRL	equ	0xff6
TBLPTRH	equ	0xff7
TBLPTRU	equ	0xff8
TABLAT	equ	0xff5
FSR1L	equ	0xfe1
FSR2L	equ	0xfd9
INDF0	equ	0xfef
POSTDEC1	equ	0xfe5
PREINC1	equ	0xfe4
PLUSW2	equ	0xfdb


; Internal registers
.registers	udata_ovr	0x0000
r0x00	res	1
r0x01	res	1
r0x02	res	1

udata_disp7seg_0	udata
_display	res	1

udata_disp7seg_1	udata
_v0	res	1

udata_disp7seg_2	udata
_v1	res	1

udata_disp7seg_3	udata
_v2	res	1

udata_disp7seg_4	udata
_v3	res	1

;--------------------------------------------------------
; global & static initialisations
;--------------------------------------------------------
; I code from now on!
; ; Starting pCode block
S_disp7seg__InicializaDisplays	code
_InicializaDisplays:
;	.line	73; disp7seg.c	void InicializaDisplays(void)
	MOVFF	FSR2L, POSTDEC1
	MOVFF	FSR1L, FSR2L
	MOVFF	r0x00, POSTDEC1
;	.line	76; disp7seg.c	BitClr(TRISA,2);
	LFSR	0x00, 0xf92
	MOVFF	INDF0, r0x00
	BCF	r0x00, 2
	LFSR	0x00, 0xf92
	MOVFF	r0x00, INDF0
;	.line	77; disp7seg.c	BitClr(TRISA,5);
	LFSR	0x00, 0xf92
	MOVFF	INDF0, r0x00
	BCF	r0x00, 5
	LFSR	0x00, 0xf92
	MOVFF	r0x00, INDF0
;	.line	78; disp7seg.c	BitClr(TRISE,0);
	LFSR	0x00, 0xf96
	MOVFF	INDF0, r0x00
	BCF	r0x00, 0
	LFSR	0x00, 0xf96
	MOVFF	r0x00, INDF0
;	.line	79; disp7seg.c	BitClr(TRISE,2);
	LFSR	0x00, 0xf96
	MOVFF	INDF0, r0x00
	BCF	r0x00, 2
	LFSR	0x00, 0xf96
	MOVFF	r0x00, INDF0
;	.line	80; disp7seg.c	ADCON1 = 0x0E; //apenas AN0 é analogico, a referencia é baseada na fonte
	LFSR	0x00, 0xfc1
	MOVLW	0x0e
	MOVWF	INDF0
;	.line	81; disp7seg.c	TRISD = 0x00;	//Porta de dados
	LFSR	0x00, 0xf95
	MOVLW	0x00
	MOVWF	INDF0
	MOVFF	PREINC1, r0x00
	MOVFF	PREINC1, FSR2L
	RETURN	

; ; Starting pCode block
S_disp7seg__AtualizaDisplay	code
_AtualizaDisplay:
;	.line	32; disp7seg.c	void AtualizaDisplay(void)
	MOVFF	FSR2L, POSTDEC1
	MOVFF	FSR1L, FSR2L
	MOVFF	r0x00, POSTDEC1
	MOVFF	r0x01, POSTDEC1
	MOVFF	r0x02, POSTDEC1
;	.line	35; disp7seg.c	PORTA = 0x00;
	LFSR	0x00, 0xf80
	MOVLW	0x00
	MOVWF	INDF0
;	.line	36; disp7seg.c	PORTE = 0x00;
	LFSR	0x00, 0xf84
	MOVLW	0x00
	MOVWF	INDF0
;	.line	38; disp7seg.c	PORTD = 0x00;
	LFSR	0x00, 0xf83
	MOVLW	0x00
	MOVWF	INDF0
;	.line	40; disp7seg.c	switch(display) //liga apenas o display da vez
	BSF	STATUS, 0
	BANKSEL	_display
	BTFSS	_display, 7, B
	BCF	STATUS, 0
	BTFSC	STATUS, 0
	BRA	_00141_DS_
	BANKSEL	_display
	MOVF	_display, W, B
	ADDLW	0x80
	ADDLW	0x7c
	BTFSC	STATUS, 0
	BRA	_00141_DS_
	CLRF	PCLATH
	CLRF	PCLATU
	BANKSEL	_display
	RLCF	_display, W, B
	RLCF	PCLATH, F
	RLCF	WREG, W
	RLCF	PCLATH, F
	ANDLW	0xfc
	ADDLW	LOW(_00152_DS_)
	MOVWF	POSTDEC1
	MOVLW	HIGH(_00152_DS_)
	ADDWFC	PCLATH, F
	MOVLW	UPPER(_00152_DS_)
	ADDWFC	PCLATU, F
	MOVF	PREINC1, W
	MOVWF	PCL
_00152_DS_:
	GOTO	_00137_DS_
	GOTO	_00138_DS_
	GOTO	_00139_DS_
	GOTO	_00140_DS_
_00137_DS_:
;	.line	43; disp7seg.c	PORTD = valor[v0];
	MOVLW	LOW(_valor)
	BANKSEL	_v0
	ADDWF	_v0, W, B
	MOVWF	r0x00
	CLRF	r0x01
	BANKSEL	_v0
	BTFSC	_v0, 7, B
	SETF	r0x01
	MOVLW	HIGH(_valor)
	ADDWFC	r0x01, F
	CLRF	r0x02
	BANKSEL	_v0
	BTFSC	_v0, 7, B
	SETF	r0x02
	MOVLW	UPPER(_valor)
	ADDWFC	r0x02, F
	MOVFF	r0x00, TBLPTRL
	MOVFF	r0x01, TBLPTRH
	MOVFF	r0x02, TBLPTRU
	TBLRD*+	
	MOVFF	TABLAT, r0x00
	LFSR	0x00, 0xf83
	MOVFF	r0x00, INDF0
;	.line	44; disp7seg.c	BitSet(PORTA,5);
	LFSR	0x00, 0xf80
	MOVFF	INDF0, r0x00
	BSF	r0x00, 5
	LFSR	0x00, 0xf80
	MOVFF	r0x00, INDF0
;	.line	45; disp7seg.c	display = 1;
	MOVLW	0x01
	BANKSEL	_display
	MOVWF	_display, B
;	.line	46; disp7seg.c	break;
	BRA	_00143_DS_
_00138_DS_:
;	.line	49; disp7seg.c	PORTD = valor[v1];
	MOVLW	LOW(_valor)
	BANKSEL	_v1
	ADDWF	_v1, W, B
	MOVWF	r0x00
	CLRF	r0x01
	BANKSEL	_v1
	BTFSC	_v1, 7, B
	SETF	r0x01
	MOVLW	HIGH(_valor)
	ADDWFC	r0x01, F
	CLRF	r0x02
	BANKSEL	_v1
	BTFSC	_v1, 7, B
	SETF	r0x02
	MOVLW	UPPER(_valor)
	ADDWFC	r0x02, F
	MOVFF	r0x00, TBLPTRL
	MOVFF	r0x01, TBLPTRH
	MOVFF	r0x02, TBLPTRU
	TBLRD*+	
	MOVFF	TABLAT, r0x00
	LFSR	0x00, 0xf83
	MOVFF	r0x00, INDF0
;	.line	50; disp7seg.c	BitSet(PORTA,2);
	LFSR	0x00, 0xf80
	MOVFF	INDF0, r0x00
	BSF	r0x00, 2
	LFSR	0x00, 0xf80
	MOVFF	r0x00, INDF0
;	.line	51; disp7seg.c	display = 2;
	MOVLW	0x02
	BANKSEL	_display
	MOVWF	_display, B
;	.line	52; disp7seg.c	break;
	BRA	_00143_DS_
_00139_DS_:
;	.line	55; disp7seg.c	PORTD = valor[v2];
	MOVLW	LOW(_valor)
	BANKSEL	_v2
	ADDWF	_v2, W, B
	MOVWF	r0x00
	CLRF	r0x01
	BANKSEL	_v2
	BTFSC	_v2, 7, B
	SETF	r0x01
	MOVLW	HIGH(_valor)
	ADDWFC	r0x01, F
	CLRF	r0x02
	BANKSEL	_v2
	BTFSC	_v2, 7, B
	SETF	r0x02
	MOVLW	UPPER(_valor)
	ADDWFC	r0x02, F
	MOVFF	r0x00, TBLPTRL
	MOVFF	r0x01, TBLPTRH
	MOVFF	r0x02, TBLPTRU
	TBLRD*+	
	MOVFF	TABLAT, r0x00
	LFSR	0x00, 0xf83
	MOVFF	r0x00, INDF0
;	.line	56; disp7seg.c	BitSet(PORTE,0);
	LFSR	0x00, 0xf84
	MOVFF	INDF0, r0x00
	BSF	r0x00, 0
	LFSR	0x00, 0xf84
	MOVFF	r0x00, INDF0
;	.line	57; disp7seg.c	display = 3;
	MOVLW	0x03
	BANKSEL	_display
	MOVWF	_display, B
;	.line	58; disp7seg.c	break;
	BRA	_00143_DS_
_00140_DS_:
;	.line	61; disp7seg.c	PORTD = valor[v3];
	MOVLW	LOW(_valor)
	BANKSEL	_v3
	ADDWF	_v3, W, B
	MOVWF	r0x00
	CLRF	r0x01
	BANKSEL	_v3
	BTFSC	_v3, 7, B
	SETF	r0x01
	MOVLW	HIGH(_valor)
	ADDWFC	r0x01, F
	CLRF	r0x02
	BANKSEL	_v3
	BTFSC	_v3, 7, B
	SETF	r0x02
	MOVLW	UPPER(_valor)
	ADDWFC	r0x02, F
	MOVFF	r0x00, TBLPTRL
	MOVFF	r0x01, TBLPTRH
	MOVFF	r0x02, TBLPTRU
	TBLRD*+	
	MOVFF	TABLAT, r0x00
	LFSR	0x00, 0xf83
	MOVFF	r0x00, INDF0
;	.line	62; disp7seg.c	BitSet(PORTE,2);
	LFSR	0x00, 0xf84
	MOVFF	INDF0, r0x00
	BSF	r0x00, 2
	LFSR	0x00, 0xf84
	MOVFF	r0x00, INDF0
	BANKSEL	_display
;	.line	63; disp7seg.c	display = 0;
	CLRF	_display, B
;	.line	64; disp7seg.c	break;
	BRA	_00143_DS_
_00141_DS_:
	BANKSEL	_display
;	.line	67; disp7seg.c	display = 0;
	CLRF	_display, B
_00143_DS_:
;	.line	69; disp7seg.c	}
	MOVFF	PREINC1, r0x02
	MOVFF	PREINC1, r0x01
	MOVFF	PREINC1, r0x00
	MOVFF	PREINC1, FSR2L
	RETURN	

; ; Starting pCode block
S_disp7seg__MudaDigito	code
_MudaDigito:
;	.line	11; disp7seg.c	void MudaDigito(char val, char pos)
	MOVFF	FSR2L, POSTDEC1
	MOVFF	FSR1L, FSR2L
	MOVFF	r0x00, POSTDEC1
	MOVFF	r0x01, POSTDEC1
	MOVLW	0x02
	MOVFF	PLUSW2, r0x00
	MOVLW	0x03
	MOVFF	PLUSW2, r0x01
;	.line	13; disp7seg.c	if (pos == 0)
	MOVF	r0x01, W
	BNZ	_00106_DS_
;	.line	15; disp7seg.c	v0 = val;
	MOVFF	r0x00, _v0
_00106_DS_:
;	.line	17; disp7seg.c	if (pos == 1)
	MOVF	r0x01, W
	XORLW	0x01
	BNZ	_00108_DS_
;	.line	19; disp7seg.c	v1 = val;
	MOVFF	r0x00, _v1
_00108_DS_:
;	.line	21; disp7seg.c	if (pos == 2)
	MOVF	r0x01, W
	XORLW	0x02
	BNZ	_00110_DS_
;	.line	23; disp7seg.c	v2 = val;
	MOVFF	r0x00, _v2
_00110_DS_:
;	.line	25; disp7seg.c	if (pos == 3)
	MOVF	r0x01, W
	XORLW	0x03
	BNZ	_00113_DS_
;	.line	27; disp7seg.c	v3 = val;
	MOVFF	r0x00, _v3
_00113_DS_:
	MOVFF	PREINC1, r0x01
	MOVFF	PREINC1, r0x00
	MOVFF	PREINC1, FSR2L
	RETURN	

; ; Starting pCode block for Ival
	code
_valor:
	DB	0x3f, 0x06, 0x5b, 0x4f, 0x66, 0x6d, 0x7d, 0x07, 0x7f, 0x6f, 0x77, 0x7c
	DB	0x39, 0x5e, 0x79, 0x71


; Statistics:
; code size:	  668 (0x029c) bytes ( 0.51%)
;           	  334 (0x014e) words
; udata size:	    5 (0x0005) bytes ( 0.39%)
; access size:	    3 (0x0003) bytes


	end
