gpasm-1.4.0 #1106 (Oct  6 2014) build/default   10-20-2016  09:59:39        PAGE  1


LOC    OBJECT CODE    LINE  SOURCE TEXT
  VALUE

                      00001 ;--------------------------------------------------------
                      00002 ; File Created by SDCC : free open source ANSI-C Compiler
                      00003 ; Version 3.5.0 #9253 (Jun 20 2015) (MINGW64)
                      00004 ; This file was generated Thu Oct 20 09:59:39 2016
                      00005 ;--------------------------------------------------------
                      00006 ; PIC16 port for the Microchip 16-bit core micros
                      00007 ;--------------------------------------------------------
                      00008         list    p=18f4520
                      00009         radix   dec
                      00010 
                      00011 
                      00012 ;--------------------------------------------------------
                      00013 ; public variables in this module
                      00014 ;--------------------------------------------------------
  0000                00015         global  _InicializaAD
  0000                00016         global  _LeValorAD
                      00017 
                      00018 ;--------------------------------------------------------
                      00019 ;       Equates to used internal registers
                      00020 ;--------------------------------------------------------
  00000FE8            00021 WREG    equ     0xfe8
  00000FE1            00022 FSR1L   equ     0xfe1
  00000FD9            00023 FSR2L   equ     0xfd9
  00000FEF            00024 INDF0   equ     0xfef
  00000FE5            00025 POSTDEC1        equ     0xfe5
  00000FE4            00026 PREINC1 equ     0xfe4
  00000FF3            00027 PRODL   equ     0xff3
                      00028 
                      00029 
                      00030 ; Internal registers
                      00031 .registers      udata_ovr       0x0000
000000                00032 r0x00   res     1
000001                00033 r0x01   res     1
000002                00034 r0x02   res     1
000003                00035 r0x03   res     1
                      00036 
                      00037 ;--------------------------------------------------------
                      00038 ; global & static initialisations
                      00039 ;--------------------------------------------------------
                      00040 ; I code from now on!
                      00041 ; ; Starting pCode block
                      00042 S_adc__LeValorAD        code
000000                00043 _LeValorAD:
                      00044 ;       .line   32; adc.c       int LeValorAD(void)
000000 CFD9 FFE5      00045         MOVFF   FSR2L, POSTDEC1
000004 CFE1 FFD9      00046         MOVFF   FSR1L, FSR2L
000008 C??? F???      00047         MOVFF   r0x00, POSTDEC1
00000C C??? F???      00048         MOVFF   r0x01, POSTDEC1
000010 C??? F???      00049         MOVFF   r0x02, POSTDEC1
000014 C??? F???      00050         MOVFF   r0x03, POSTDEC1
                      00051 ;       .line   35; adc.c       ADCON0 |= 0b00000010;    //inicia conversao
000018 EE0F F0C2      00052         LFSR    0x00, 0xfc2
00001C CFEF F000      00053         MOVFF   INDF0, r0x00
gpasm-1.4.0 #1106 (Oct  6 2014) build/default   10-20-2016  09:59:39        PAGE  2


LOC    OBJECT CODE    LINE  SOURCE TEXT
  VALUE

000020 82??           00054         BSF     r0x00, 1
000022 EE0F F0C2      00055         LFSR    0x00, 0xfc2
000026 C??? F???      00056         MOVFF   r0x00, INDF0
00002A                00057 _00110_DS_:
                      00058 ;       .line   37; adc.c       while(BitTst(ADCON0,1)); // espera terminar a conversão;
00002A EE0F F0C2      00059         LFSR    0x00, 0xfc2
00002E CFEF F000      00060         MOVFF   INDF0, r0x00
000032 B2??           00061         BTFSC   r0x00, 1
000034 D???           00062         BRA     _00110_DS_
                      00063 ;       .line   39; adc.c       ADvalor = ADRESH ; // le o resultado
000036 EE0F F0C4      00064         LFSR    0x00, 0xfc4
00003A CFEF F000      00065         MOVFF   INDF0, r0x00
Message[1301]: Using default destination of 0 (Access Bank).
00003E 6A??           00066         CLRF    r0x01
                      00067 ;       .line   40; adc.c       ADvalor <<= 8;
000040 50??           00068         MOVF    r0x00, W
Message[1301]: Using default destination of 0 (Access Bank).
000042 6E??           00069         MOVWF   r0x01
Message[1301]: Using default destination of 0 (Access Bank).
000044 6A??           00070         CLRF    r0x00
                      00071 ;       .line   41; adc.c       ADvalor += ADRESL;
000046 EE0F F0C3      00072         LFSR    0x00, 0xfc3
00004A CFEF F000      00073         MOVFF   INDF0, r0x02
Message[1301]: Using default destination of 0 (Access Bank).
00004E 6A??           00074         CLRF    r0x03
000050 50??           00075         MOVF    r0x02, W
000052 26??           00076         ADDWF   r0x00, F
000054 50??           00077         MOVF    r0x03, W
000056 22??           00078         ADDWFC  r0x01, F
                      00079 ;       .line   42; adc.c       return ADvalor;
000058 C??? F???      00080         MOVFF   r0x01, PRODL
00005C 50??           00081         MOVF    r0x00, W
00005E CFE4 F000      00082         MOVFF   PREINC1, r0x03
000062 CFE4 F000      00083         MOVFF   PREINC1, r0x02
000066 CFE4 F000      00084         MOVFF   PREINC1, r0x01
00006A CFE4 F000      00085         MOVFF   PREINC1, r0x00
00006E CFE4 FFD9      00086         MOVFF   PREINC1, FSR2L
000072 0012           00087         RETURN  
                      00088 
                      00089 ; ; Starting pCode block
                      00090 S_adc__InicializaAD     code
000000                00091 _InicializaAD:
                      00092 ;       .line   23; adc.c       void InicializaAD(void)
000000 CFD9 FFE5      00093         MOVFF   FSR2L, POSTDEC1
000004 CFE1 FFD9      00094         MOVFF   FSR1L, FSR2L
000008 C??? F???      00095         MOVFF   r0x00, POSTDEC1
                      00096 ;       .line   25; adc.c       BitSet(TRISA,0); //seta o bit 0 como entrada
00000C EE0F F092      00097         LFSR    0x00, 0xf92
000010 CFEF F000      00098         MOVFF   INDF0, r0x00
000014 80??           00099         BSF     r0x00, 0
000016 EE0F F092      00100         LFSR    0x00, 0xf92
00001A C??? F???      00101         MOVFF   r0x00, INDF0
                      00102 ;       .line   27; adc.c       ADCON0 = 0b00000001; //seleciona o canal 0 e liga o ad
gpasm-1.4.0 #1106 (Oct  6 2014) build/default   10-20-2016  09:59:39        PAGE  3


LOC    OBJECT CODE    LINE  SOURCE TEXT
  VALUE

00001E EE0F F0C2      00103         LFSR    0x00, 0xfc2
000022 0E01           00104         MOVLW   0x01
Message[1301]: Using default destination of 0 (Access Bank).
000024 6EEF           00105         MOVWF   INDF0
                      00106 ;       .line   28; adc.c       ADCON1 = 0b00001110; //apenas AN0 é analogico, a referencia é baseada na
                             fonte
000026 EE0F F0C1      00107         LFSR    0x00, 0xfc1
00002A 0E0E           00108         MOVLW   0x0e
Message[1301]: Using default destination of 0 (Access Bank).
00002C 6EEF           00109         MOVWF   INDF0
                      00110 ;       .line   29; adc.c       ADCON2 = 0b10101010; //FOSC /32, Alinhamento à direita e tempo de conv =
                             12 TAD
00002E EE0F F0C0      00111         LFSR    0x00, 0xfc0
000032 0EAA           00112         MOVLW   0xaa
Message[1301]: Using default destination of 0 (Access Bank).
000034 6EEF           00113         MOVWF   INDF0
000036 CFE4 F000      00114         MOVFF   PREINC1, r0x00
00003A CFE4 FFD9      00115         MOVFF   PREINC1, FSR2L
00003E 0012           00116         RETURN  
                      00117 
                      00118 
                      00119 
                      00120 ; Statistics:
                      00121 ; code size:      180 (0x00b4) bytes ( 0.14%)
                      00122 ;                  90 (0x005a) words
                      00123 ; udata size:       0 (0x0000) bytes ( 0.00%)
                      00124 ; access size:      4 (0x0004) bytes
                      00125 
                      00126 
                      00127         end
gpasm-1.4.0 #1106 (Oct  6 2014) build/default   10-20-2016  09:59:39        PAGE  4


SYMBOL TABLE
  LABEL                             VALUE

FSR1L                             00000FE1
FSR2L                             00000FD9
INDF0                             00000FEF
POSTDEC1                          00000FE5
PREINC1                           00000FE4
PRODL                             00000FF3
WREG                              00000FE8
_00110_DS_                        0000002A
_InicializaAD                     00000000
_LeValorAD                        00000000
__18F4520                         00000001
__ACC_RAM_LOW_END                 0000007F
__CODE_END                        00007FFF
__CODE_START                      00000000
__EEPROM_END                      00F000FF
__EEPROM_START                    00F00000
__VECTOR_INT_HIGH                 00000008
__VECTOR_INT_LOW                  00000018
__VECTOR_RESET                    00000000
r0x00                             00000000
r0x01                             00000001
r0x02                             00000002
r0x03                             00000003

Errors   :     0
Warnings :     0 reported,     0 suppressed
Messages :     7 reported,     0 suppressed

