gpasm-1.4.0 #1106 (Oct  6 2014) build/default   10-20-2016  09:59:39        PAGE  1


LOC    OBJECT CODE    LINE  SOURCE TEXT
  VALUE

                      00001 ;--------------------------------------------------------
                      00002 ; File Created by SDCC : free open source ANSI-C Compiler
                      00003 ; Version 3.5.0 #9253 (Jun 20 2015) (MINGW64)
                      00004 ; This file was generated Thu Oct 20 09:59:39 2016
                      00005 ;--------------------------------------------------------
                      00006 ; PIC16 port for the Microchip 16-bit core micros
                      00007 ;--------------------------------------------------------
                      00008         list    p=18f4520
                      00009         radix   dec
                      00010 
                      00011 
                      00012 ;--------------------------------------------------------
                      00013 ; public variables in this module
                      00014 ;--------------------------------------------------------
  0000                00015         global  _SetaPWM1
  0000                00016         global  _SetaPWM2
  0000                00017         global  _SetaFreqPWM
  0000                00018         global  _InicializaPWM
                      00019 
                      00020 ;--------------------------------------------------------
                      00021 ; extern variables in this module
                      00022 ;--------------------------------------------------------
  0000                00023         extern  __mulint
  0000                00024         extern  __divuint
  0000                00025         extern  __divslong
                      00026 
                      00027 ;--------------------------------------------------------
                      00028 ;       Equates to used internal registers
                      00029 ;--------------------------------------------------------
  00000FD8            00030 STATUS  equ     0xfd8
  00000FE9            00031 FSR0L   equ     0xfe9
  00000FE1            00032 FSR1L   equ     0xfe1
  00000FD9            00033 FSR2L   equ     0xfd9
  00000FEF            00034 INDF0   equ     0xfef
  00000FE5            00035 POSTDEC1        equ     0xfe5
  00000FE4            00036 PREINC1 equ     0xfe4
  00000FDB            00037 PLUSW2  equ     0xfdb
  00000FF3            00038 PRODL   equ     0xff3
  00000FF4            00039 PRODH   equ     0xff4
                      00040 
                      00041 
                      00042 ; Internal registers
                      00043 .registers      udata_ovr       0x0000
000000                00044 r0x00   res     1
000001                00045 r0x01   res     1
000002                00046 r0x02   res     1
000003                00047 r0x03   res     1
                      00048 
                      00049 ;--------------------------------------------------------
                      00050 ; global & static initialisations
                      00051 ;--------------------------------------------------------
                      00052 ; I code from now on!
                      00053 ; ; Starting pCode block
gpasm-1.4.0 #1106 (Oct  6 2014) build/default   10-20-2016  09:59:39        PAGE  2


LOC    OBJECT CODE    LINE  SOURCE TEXT
  VALUE

                      00054 S_pwm__InicializaPWM    code
000000                00055 _InicializaPWM:
                      00056 ;       .line   59; pwm.c       void InicializaPWM(void)
000000 CFD9 FFE5      00057         MOVFF   FSR2L, POSTDEC1
000004 CFE1 FFD9      00058         MOVFF   FSR1L, FSR2L
000008 C??? F???      00059         MOVFF   r0x00, POSTDEC1
                      00060 ;       .line   61; pwm.c       BitClr(TRISC,1);//configura os pinos correspondentes como saídas
00000C EE0F F094      00061         LFSR    0x00, 0xf94
000010 CFEF F000      00062         MOVFF   INDF0, r0x00
000014 92??           00063         BCF     r0x00, 1
000016 EE0F F094      00064         LFSR    0x00, 0xf94
00001A C??? F???      00065         MOVFF   r0x00, INDF0
                      00066 ;       .line   62; pwm.c       BitClr(TRISC,2);
00001E EE0F F094      00067         LFSR    0x00, 0xf94
000022 CFEF F000      00068         MOVFF   INDF0, r0x00
000026 94??           00069         BCF     r0x00, 2
000028 EE0F F094      00070         LFSR    0x00, 0xf94
00002C C??? F???      00071         MOVFF   r0x00, INDF0
                      00072 ;       .line   64; pwm.c       T2CON |= 0b00000011; //configura o prescale do timer 2 para 1:16
000030 EE0F F0CA      00073         LFSR    0x00, 0xfca
000034 CFEF F000      00074         MOVFF   INDF0, r0x00
000038 0E03           00075         MOVLW   0x03
00003A 12??           00076         IORWF   r0x00, F
00003C EE0F F0CA      00077         LFSR    0x00, 0xfca
000040 C??? F???      00078         MOVFF   r0x00, INDF0
                      00079 ;       .line   65; pwm.c       BitSet(T2CON,2); //Liga o timer 2
000044 EE0F F0CA      00080         LFSR    0x00, 0xfca
000048 CFEF F000      00081         MOVFF   INDF0, r0x00
00004C 84??           00082         BSF     r0x00, 2
00004E EE0F F0CA      00083         LFSR    0x00, 0xfca
000052 C??? F???      00084         MOVFF   r0x00, INDF0
                      00085 ;       .line   68; pwm.c       CCP1CON |= 0b00001100;  //configura CCP1 como um PWM
000056 EE0F F0BD      00086         LFSR    0x00, 0xfbd
00005A CFEF F000      00087         MOVFF   INDF0, r0x00
00005E 0E0C           00088         MOVLW   0x0c
000060 12??           00089         IORWF   r0x00, F
000062 EE0F F0BD      00090         LFSR    0x00, 0xfbd
000066 C??? F???      00091         MOVFF   r0x00, INDF0
                      00092 ;       .line   69; pwm.c       CCP2CON |= 0b00001100;  //configura CCP2 como um PWM
00006A EE0F F0BA      00093         LFSR    0x00, 0xfba
00006E CFEF F000      00094         MOVFF   INDF0, r0x00
000072 0E0C           00095         MOVLW   0x0c
000074 12??           00096         IORWF   r0x00, F
000076 EE0F F0BA      00097         LFSR    0x00, 0xfba
00007A C??? F???      00098         MOVFF   r0x00, INDF0
00007E CFE4 F000      00099         MOVFF   PREINC1, r0x00
000082 CFE4 FFD9      00100         MOVFF   PREINC1, FSR2L
000086 0012           00101         RETURN  
                      00102 
                      00103 ; ; Starting pCode block
                      00104 S_pwm__SetaFreqPWM      code
000000                00105 _SetaFreqPWM:
                      00106 ;       .line   52; pwm.c       void SetaFreqPWM(unsigned int freq)
gpasm-1.4.0 #1106 (Oct  6 2014) build/default   10-20-2016  09:59:39        PAGE  3


LOC    OBJECT CODE    LINE  SOURCE TEXT
  VALUE

000000 CFD9 FFE5      00107         MOVFF   FSR2L, POSTDEC1
000004 CFE1 FFD9      00108         MOVFF   FSR1L, FSR2L
000008 C??? F???      00109         MOVFF   r0x00, POSTDEC1
00000C C??? F???      00110         MOVFF   r0x01, POSTDEC1
000010 C??? F???      00111         MOVFF   r0x02, POSTDEC1
000014 C??? F???      00112         MOVFF   r0x03, POSTDEC1
000018 0E02           00113         MOVLW   0x02
00001A CFDB F000      00114         MOVFF   PLUSW2, r0x00
00001E 0E03           00115         MOVLW   0x03
000020 CFDB F000      00116         MOVFF   PLUSW2, r0x01
                      00117 ;       .line   56; pwm.c       PR2 = (125000/(freq)) - 1;
Message[1301]: Using default destination of 0 (Access Bank).
000024 6A??           00118         CLRF    r0x02
Message[1301]: Using default destination of 0 (Access Bank).
000026 6A??           00119         CLRF    r0x03
000028 50??           00120         MOVF    r0x03, W
Message[1301]: Using default destination of 0 (Access Bank).
00002A 6EE5           00121         MOVWF   POSTDEC1
00002C 50??           00122         MOVF    r0x02, W
Message[1301]: Using default destination of 0 (Access Bank).
00002E 6EE5           00123         MOVWF   POSTDEC1
000030 50??           00124         MOVF    r0x01, W
Message[1301]: Using default destination of 0 (Access Bank).
000032 6EE5           00125         MOVWF   POSTDEC1
000034 50??           00126         MOVF    r0x00, W
Message[1301]: Using default destination of 0 (Access Bank).
000036 6EE5           00127         MOVWF   POSTDEC1
000038 0E00           00128         MOVLW   0x00
Message[1301]: Using default destination of 0 (Access Bank).
00003A 6EE5           00129         MOVWF   POSTDEC1
00003C 0E01           00130         MOVLW   0x01
Message[1301]: Using default destination of 0 (Access Bank).
00003E 6EE5           00131         MOVWF   POSTDEC1
000040 0EE8           00132         MOVLW   0xe8
Message[1301]: Using default destination of 0 (Access Bank).
000042 6EE5           00133         MOVWF   POSTDEC1
000044 0E48           00134         MOVLW   0x48
Message[1301]: Using default destination of 0 (Access Bank).
000046 6EE5           00135         MOVWF   POSTDEC1
000048 EC?? F0??      00136         CALL    __divslong
Message[1301]: Using default destination of 0 (Access Bank).
00004C 6E??           00137         MOVWF   r0x00
00004E CFF3 F000      00138         MOVFF   PRODL, r0x01
000052 CFF4 F000      00139         MOVFF   PRODH, r0x02
000056 CFE9 F000      00140         MOVFF   FSR0L, r0x03
00005A 0E08           00141         MOVLW   0x08
00005C 26E1           00142         ADDWF   FSR1L, F
00005E 06??           00143         DECF    r0x00, F
000060 EE0F F0CB      00144         LFSR    0x00, 0xfcb
000064 C??? F???      00145         MOVFF   r0x00, INDF0
000068 CFE4 F000      00146         MOVFF   PREINC1, r0x03
00006C CFE4 F000      00147         MOVFF   PREINC1, r0x02
000070 CFE4 F000      00148         MOVFF   PREINC1, r0x01
gpasm-1.4.0 #1106 (Oct  6 2014) build/default   10-20-2016  09:59:39        PAGE  4


LOC    OBJECT CODE    LINE  SOURCE TEXT
  VALUE

000074 CFE4 F000      00149         MOVFF   PREINC1, r0x00
000078 CFE4 FFD9      00150         MOVFF   PREINC1, FSR2L
00007C 0012           00151         RETURN  
                      00152 
                      00153 ; ; Starting pCode block
                      00154 S_pwm__SetaPWM2 code
000000                00155 _SetaPWM2:
                      00156 ;       .line   40; pwm.c       void SetaPWM2(unsigned char porcento)
000000 CFD9 FFE5      00157         MOVFF   FSR2L, POSTDEC1
000004 CFE1 FFD9      00158         MOVFF   FSR1L, FSR2L
000008 C??? F???      00159         MOVFF   r0x00, POSTDEC1
00000C C??? F???      00160         MOVFF   r0x01, POSTDEC1
000010 C??? F???      00161         MOVFF   r0x02, POSTDEC1
000014 C??? F???      00162         MOVFF   r0x03, POSTDEC1
000018 0E02           00163         MOVLW   0x02
00001A CFDB F000      00164         MOVFF   PLUSW2, r0x00
                      00165 ;       .line   42; pwm.c       unsigned int val = ((unsigned int)porcento) *(PR2+1);
Message[1301]: Using default destination of 0 (Access Bank).
00001E 6A??           00166         CLRF    r0x01
000020 EE0F F0CB      00167         LFSR    0x00, 0xfcb
000024 CFEF F000      00168         MOVFF   INDF0, r0x02
Message[1301]: Using default destination of 0 (Access Bank).
000028 6A??           00169         CLRF    r0x03
00002A 4A??           00170         INFSNZ  r0x02, F
00002C 2A??           00171         INCF    r0x03, F
00002E 50??           00172         MOVF    r0x03, W
Message[1301]: Using default destination of 0 (Access Bank).
000030 6EE5           00173         MOVWF   POSTDEC1
000032 50??           00174         MOVF    r0x02, W
Message[1301]: Using default destination of 0 (Access Bank).
000034 6EE5           00175         MOVWF   POSTDEC1
000036 50??           00176         MOVF    r0x01, W
Message[1301]: Using default destination of 0 (Access Bank).
000038 6EE5           00177         MOVWF   POSTDEC1
00003A 50??           00178         MOVF    r0x00, W
Message[1301]: Using default destination of 0 (Access Bank).
00003C 6EE5           00179         MOVWF   POSTDEC1
00003E EC?? F0??      00180         CALL    __mulint
Message[1301]: Using default destination of 0 (Access Bank).
000042 6E??           00181         MOVWF   r0x00
000044 CFF3 F000      00182         MOVFF   PRODL, r0x01
000048 0E04           00183         MOVLW   0x04
00004A 26E1           00184         ADDWF   FSR1L, F
                      00185 ;       .line   43; pwm.c       val /= 25;
00004C 0E00           00186         MOVLW   0x00
Message[1301]: Using default destination of 0 (Access Bank).
00004E 6EE5           00187         MOVWF   POSTDEC1
000050 0E19           00188         MOVLW   0x19
Message[1301]: Using default destination of 0 (Access Bank).
000052 6EE5           00189         MOVWF   POSTDEC1
000054 50??           00190         MOVF    r0x01, W
Message[1301]: Using default destination of 0 (Access Bank).
000056 6EE5           00191         MOVWF   POSTDEC1
gpasm-1.4.0 #1106 (Oct  6 2014) build/default   10-20-2016  09:59:39        PAGE  5


LOC    OBJECT CODE    LINE  SOURCE TEXT
  VALUE

000058 50??           00192         MOVF    r0x00, W
Message[1301]: Using default destination of 0 (Access Bank).
00005A 6EE5           00193         MOVWF   POSTDEC1
00005C EC?? F0??      00194         CALL    __divuint
Message[1301]: Using default destination of 0 (Access Bank).
000060 6E??           00195         MOVWF   r0x00
000062 CFF3 F000      00196         MOVFF   PRODL, r0x01
000066 0E04           00197         MOVLW   0x04
000068 26E1           00198         ADDWF   FSR1L, F
                      00199 ;       .line   45; pwm.c       val &= 0x03ff;
00006A 0E03           00200         MOVLW   0x03
00006C 16??           00201         ANDWF   r0x01, F
                      00202 ;       .line   47; pwm.c       CCPR2L = val >> 2;
00006E 90D8           00203         BCF     STATUS, 0
000070 30??           00204         RRCF    r0x01, W
Message[1301]: Using default destination of 0 (Access Bank).
000072 6E??           00205         MOVWF   r0x03
000074 30??           00206         RRCF    r0x00, W
Message[1301]: Using default destination of 0 (Access Bank).
000076 6E??           00207         MOVWF   r0x02
000078 90D8           00208         BCF     STATUS, 0
00007A 32??           00209         RRCF    r0x03, F
00007C 32??           00210         RRCF    r0x02, F
00007E EE0F F0BB      00211         LFSR    0x00, 0xfbb
000082 C??? F???      00212         MOVFF   r0x02, INDF0
                      00213 ;       .line   49; pwm.c       CCP2CON |= (val & 0x0003) << 4;
000086 EE0F F0BA      00214         LFSR    0x00, 0xfba
00008A CFEF F000      00215         MOVFF   INDF0, r0x02
00008E 0E03           00216         MOVLW   0x03
000090 16??           00217         ANDWF   r0x00, F
Message[1301]: Using default destination of 0 (Access Bank).
000092 6A??           00218         CLRF    r0x01
000094 38??           00219         SWAPF   r0x00, W
000096 0BF0           00220         ANDLW   0xf0
Message[1301]: Using default destination of 0 (Access Bank).
000098 6E??           00221         MOVWF   r0x01
00009A 50??           00222         MOVF    r0x01, W
00009C 12??           00223         IORWF   r0x02, F
00009E EE0F F0BA      00224         LFSR    0x00, 0xfba
0000A2 C??? F???      00225         MOVFF   r0x02, INDF0
0000A6 CFE4 F000      00226         MOVFF   PREINC1, r0x03
0000AA CFE4 F000      00227         MOVFF   PREINC1, r0x02
0000AE CFE4 F000      00228         MOVFF   PREINC1, r0x01
0000B2 CFE4 F000      00229         MOVFF   PREINC1, r0x00
0000B6 CFE4 FFD9      00230         MOVFF   PREINC1, FSR2L
0000BA 0012           00231         RETURN  
                      00232 
                      00233 ; ; Starting pCode block
                      00234 S_pwm__SetaPWM1 code
000000                00235 _SetaPWM1:
                      00236 ;       .line   23; pwm.c       void SetaPWM1(unsigned char porcento)
000000 CFD9 FFE5      00237         MOVFF   FSR2L, POSTDEC1
000004 CFE1 FFD9      00238         MOVFF   FSR1L, FSR2L
gpasm-1.4.0 #1106 (Oct  6 2014) build/default   10-20-2016  09:59:39        PAGE  6


LOC    OBJECT CODE    LINE  SOURCE TEXT
  VALUE

000008 C??? F???      00239         MOVFF   r0x00, POSTDEC1
00000C C??? F???      00240         MOVFF   r0x01, POSTDEC1
000010 C??? F???      00241         MOVFF   r0x02, POSTDEC1
000014 C??? F???      00242         MOVFF   r0x03, POSTDEC1
000018 0E02           00243         MOVLW   0x02
00001A CFDB F000      00244         MOVFF   PLUSW2, r0x00
                      00245 ;       .line   30; pwm.c       unsigned int val = ((unsigned int)porcento) *(PR2+1);
Message[1301]: Using default destination of 0 (Access Bank).
00001E 6A??           00246         CLRF    r0x01
000020 EE0F F0CB      00247         LFSR    0x00, 0xfcb
000024 CFEF F000      00248         MOVFF   INDF0, r0x02
Message[1301]: Using default destination of 0 (Access Bank).
000028 6A??           00249         CLRF    r0x03
00002A 4A??           00250         INFSNZ  r0x02, F
00002C 2A??           00251         INCF    r0x03, F
00002E 50??           00252         MOVF    r0x03, W
Message[1301]: Using default destination of 0 (Access Bank).
000030 6EE5           00253         MOVWF   POSTDEC1
000032 50??           00254         MOVF    r0x02, W
Message[1301]: Using default destination of 0 (Access Bank).
000034 6EE5           00255         MOVWF   POSTDEC1
000036 50??           00256         MOVF    r0x01, W
Message[1301]: Using default destination of 0 (Access Bank).
000038 6EE5           00257         MOVWF   POSTDEC1
00003A 50??           00258         MOVF    r0x00, W
Message[1301]: Using default destination of 0 (Access Bank).
00003C 6EE5           00259         MOVWF   POSTDEC1
00003E EC?? F0??      00260         CALL    __mulint
Message[1301]: Using default destination of 0 (Access Bank).
000042 6E??           00261         MOVWF   r0x00
000044 CFF3 F000      00262         MOVFF   PRODL, r0x01
000048 0E04           00263         MOVLW   0x04
00004A 26E1           00264         ADDWF   FSR1L, F
                      00265 ;       .line   31; pwm.c       val = val / 25;
00004C 0E00           00266         MOVLW   0x00
Message[1301]: Using default destination of 0 (Access Bank).
00004E 6EE5           00267         MOVWF   POSTDEC1
000050 0E19           00268         MOVLW   0x19
Message[1301]: Using default destination of 0 (Access Bank).
000052 6EE5           00269         MOVWF   POSTDEC1
000054 50??           00270         MOVF    r0x01, W
Message[1301]: Using default destination of 0 (Access Bank).
000056 6EE5           00271         MOVWF   POSTDEC1
000058 50??           00272         MOVF    r0x00, W
Message[1301]: Using default destination of 0 (Access Bank).
00005A 6EE5           00273         MOVWF   POSTDEC1
00005C EC?? F0??      00274         CALL    __divuint
Message[1301]: Using default destination of 0 (Access Bank).
000060 6E??           00275         MOVWF   r0x00
000062 CFF3 F000      00276         MOVFF   PRODL, r0x01
000066 0E04           00277         MOVLW   0x04
000068 26E1           00278         ADDWF   FSR1L, F
                      00279 ;       .line   33; pwm.c       val &= 0x03ff;
gpasm-1.4.0 #1106 (Oct  6 2014) build/default   10-20-2016  09:59:39        PAGE  7


LOC    OBJECT CODE    LINE  SOURCE TEXT
  VALUE

00006A 0E03           00280         MOVLW   0x03
00006C 16??           00281         ANDWF   r0x01, F
                      00282 ;       .line   35; pwm.c       CCPR1L = val >> 2;
00006E 90D8           00283         BCF     STATUS, 0
000070 30??           00284         RRCF    r0x01, W
Message[1301]: Using default destination of 0 (Access Bank).
000072 6E??           00285         MOVWF   r0x03
000074 30??           00286         RRCF    r0x00, W
Message[1301]: Using default destination of 0 (Access Bank).
000076 6E??           00287         MOVWF   r0x02
000078 90D8           00288         BCF     STATUS, 0
00007A 32??           00289         RRCF    r0x03, F
00007C 32??           00290         RRCF    r0x02, F
00007E EE0F F0BE      00291         LFSR    0x00, 0xfbe
000082 C??? F???      00292         MOVFF   r0x02, INDF0
                      00293 ;       .line   37; pwm.c       CCP1CON |= (val & 0x0003) << 4;
000086 EE0F F0BD      00294         LFSR    0x00, 0xfbd
00008A CFEF F000      00295         MOVFF   INDF0, r0x02
00008E 0E03           00296         MOVLW   0x03
000090 16??           00297         ANDWF   r0x00, F
Message[1301]: Using default destination of 0 (Access Bank).
000092 6A??           00298         CLRF    r0x01
000094 38??           00299         SWAPF   r0x00, W
000096 0BF0           00300         ANDLW   0xf0
Message[1301]: Using default destination of 0 (Access Bank).
000098 6E??           00301         MOVWF   r0x01
00009A 50??           00302         MOVF    r0x01, W
00009C 12??           00303         IORWF   r0x02, F
00009E EE0F F0BD      00304         LFSR    0x00, 0xfbd
0000A2 C??? F???      00305         MOVFF   r0x02, INDF0
0000A6 CFE4 F000      00306         MOVFF   PREINC1, r0x03
0000AA CFE4 F000      00307         MOVFF   PREINC1, r0x02
0000AE CFE4 F000      00308         MOVFF   PREINC1, r0x01
0000B2 CFE4 F000      00309         MOVFF   PREINC1, r0x00
0000B6 CFE4 FFD9      00310         MOVFF   PREINC1, FSR2L
0000BA 0012           00311         RETURN  
                      00312 
                      00313 
                      00314 
                      00315 ; Statistics:
                      00316 ; code size:      638 (0x027e) bytes ( 0.49%)
                      00317 ;                 319 (0x013f) words
                      00318 ; udata size:       0 (0x0000) bytes ( 0.00%)
                      00319 ; access size:      4 (0x0004) bytes
                      00320 
                      00321 
                      00322         end
gpasm-1.4.0 #1106 (Oct  6 2014) build/default   10-20-2016  09:59:39        PAGE  8


SYMBOL TABLE
  LABEL                             VALUE

FSR0L                             00000FE9
FSR1L                             00000FE1
FSR2L                             00000FD9
INDF0                             00000FEF
PLUSW2                            00000FDB
POSTDEC1                          00000FE5
PREINC1                           00000FE4
PRODH                             00000FF4
PRODL                             00000FF3
STATUS                            00000FD8
_InicializaPWM                    00000000
_SetaFreqPWM                      00000000
_SetaPWM1                         00000000
_SetaPWM2                         00000000
__18F4520                         00000001
__ACC_RAM_LOW_END                 0000007F
__CODE_END                        00007FFF
__CODE_START                      00000000
__EEPROM_END                      00F000FF
__EEPROM_START                    00F00000
__VECTOR_INT_HIGH                 00000008
__VECTOR_INT_LOW                  00000018
__VECTOR_RESET                    00000000
__divslong                        00000000
__divuint                         00000000
__mulint                          00000000
r0x00                             00000000
r0x01                             00000001
r0x02                             00000002
r0x03                             00000003

Errors   :     0
Warnings :     0 reported,     0 suppressed
Messages :    43 reported,     0 suppressed

